Component: ARM Compiler 5.06 update 6 (build 750) Tool: armlink [4d35ed]

==============================================================================

Section Cross References

    arch_main_1.o(.text) refers to uart.o(.text) for uart_printf
    arch_main_1.o(.text) refers to wdt.o(.text) for wdt_enable
    arch_main_1.o(.text) refers to rwip.o(.text) for rwip_schedule
    arch_main_1.o(.text) refers to gma.o(.text) for gma_flag_clear
    arch_main_1.o(.text) refers to oads.o(.text) for oad_updating_user_section_pro
    arch_main_1.o(.text) refers to icu.o(.text) for icu_get_sleep_mode
    arch_main_1.o(.text) refers to flash.o(.text) for flash_read_data
    arch_main_1.o(.text) refers to ali_config.o(.text) for user_data_contains_ali_data
    arch_main_1.o(.text) refers to app_light_ali_server.o(.text) for ali_light_status_report
    arch_main_1.o(.text) refers to gpio.o(.text) for gpio_init
    arch_main_1.o(.text) refers to emi.o(.text) for emi_init
    arch_main_1.o(.text) refers to timer.o(.text) for timer_init
    arch_main_1.o(.text) refers to intc.o(.text) for intc_init
    arch_main_1.o(.text) refers to led.o(.text) for light_status_init
    arch_main_1.o(.text) refers to rf_pn9_test.o(.text) for rw_pn9_enter
    arch_main_1.o(.text) refers to arch_main_1.o(.constdata) for .constdata
    arch_main_1.o(.text) refers to arch_main_1.o(.data) for .data
    arch_main_1.o(.text) refers to prf.o(.text) for prf_get_id_from_task
    arch_main_1.o(.text) refers to rwble_hl.o(.text) for rwble_hl_reset
    arch_main_1.o(.text) refers to lld_adv_test.o(.text) for lld_adv_test_rx_isr_cb
    arch_main_1.o(.text) refers to arch_main_1.o(.bss) for .bss
    arch_main_1.o(.text) refers to arch_main_1.o(.conststring) for .conststring
    arch_main_1.o(.text) refers to boot_handlers.o(SYS_BOOT) for boot_stack_base_UNUSED
    boot_handlers.o(SYS_BOOT) refers to __main.o(!!!main) for __main
    boot_handlers.o(SYS_BOOT) refers to boot_handlers.o(Myheap) for bottom_of_heap
    boot_vectors.o(SYS_BOOT) refers to boot_handlers.o(SYS_BOOT) for sys_Reset
    boot_vectors.o(SYS_BOOT) refers to intc.o(sys_irq_entry) for SYSirq_IRQ_Handler
    boot_vectors.o(SYS_BOOT) refers to intc.o(sys_fiq_entry) for SYSirq_FIQ_Handler
    mesh_log.o(.text) refers to mesh_log.o(.bss) for .bss
    mesh_log.o(.text) refers to mesh_log.o(.constdata) for .constdata
    rwble.o(.text) refers to lld_adv_test.o(.text) for lld_adv_test_init
    rwble.o(.text) refers to rwip.o(.text) for rwip_wakeup
    rwble.o(.text) refers to wdt.o(.text) for wdt_feed
    rwble.o(.text) refers to arch_main_1.o(.text) for assert_param
    rwip.o(.text) refers to rf_xvr.o(.text) for rf_init
    rwip.o(.text) refers to arch_main_1.o(.text) for rwip_eif_get
    rwip.o(.text) refers to rwble_hl.o(.text) for rwble_hl_init
    rwip.o(.text) refers to rwble.o(.text) for rwble_init
    rwip.o(.text) refers to app.o(.text) for appm_init
    rwip.o(.text) refers to uart.o(.text) for check_uart_stop
    rwip.o(.text) refers to wdt.o(.text) for wdt_feed
    rwip.o(.text) refers to rwip.o(.bss) for .bss
    rwip.o(.text) refers to uart.o(.data) for cur_read_buf_idx
    icu.o(.text) refers to icu.o(.data) for .data
    icu.o(.text) refers to rf_xvr.o(.bss) for XVR_ANALOG_REG_BAK
    intc.o(.text) refers to icu.o(.text) for cpu_wakeup
    intc.o(.text) refers to uart.o(.text) for uart_isr
    intc.o(.text) refers to gpio.o(.text) for gpio_isr
    intc.o(.text) refers to pwm.o(.text) for pwm_isr
    intc.o(.text) refers to led.o(.text) for pwm6_irq_done
    intc.o(.text) refers to rwble.o(.text) for rwble_isr
    intc.o(sys_fiq_entry) refers to intc.o(.text) for FIQ_Exception
    intc.o(sys_irq_entry) refers to intc.o(.text) for IRQ_Exception
    uart.o(.text) refers to vsnprintf.o(.text) for vsnprintf
    uart.o(.text) refers to arch_main_1.o(.text) for assert_err
    uart.o(.text) refers to uart.o(.data) for .data
    uart.o(.text) refers to uart.o(.bss) for .bss
    uart.o(.text) refers to rf_pn9_test.o(.text) for pn9_test_process
    flash.o(.text) refers to uart.o(.text) for uart_printf
    flash.o(.text) refers to flash.o(.data) for .data
    flash.o(.text) refers to flash.o(.bss) for .bss
    rf_xvr.o(.text) refers to rf_xvr.o(.bss) for .bss
    wdt.o(.text) refers to wdt.o(.data) for .data
    gpio.o(.text) refers to gpio.o(.data) for .data
    gpio.o(.text) refers to gpio.o(.bss) for .bss
    pwm.o(.text) refers to pwm.o(.bss) for .bss
    bass.o(.text) refers to arch_main_1.o(.text) for assert_err
    bass.o(.text) refers to prf.o(.text) for prf_env_get
    bass.o(.text) refers to bass.o(.constdata) for .constdata
    bass.o(.text) refers to bass_task.o(.constdata) for bass_default_handler
    bass.o(.constdata) refers to bass.o(.text) for bass_init
    bass_task.o(.text) refers to prf.o(.text) for prf_env_get
    bass_task.o(.text) refers to bass.o(.text) for bass_exe_operation
    bass_task.o(.text) refers to prf_utils.o(.text) for prf_pack_char_pres_fmt
    bass_task.o(.constdata) refers to bass_task.o(.text) for bass_enable_req_handler
    bass_task.o(.constdata) refers to bass_task.o(.constdata) for bass_default_state
    diss.o(.text) refers to diss.o(.constdata) for .constdata
    diss.o(.text) refers to diss_task.o(.constdata) for diss_default_handler
    diss.o(.constdata) refers to diss.o(.text) for diss_init
    diss_task.o(.text) refers to prf.o(.text) for prf_env_get
    diss_task.o(.text) refers to diss.o(.text) for diss_value_to_handle
    diss_task.o(.constdata) refers to diss_task.o(.text) for diss_set_value_req_handler
    diss_task.o(.constdata) refers to diss_task.o(.constdata) for diss_default_state
    fff0s.o(.text) refers to arch_main_1.o(.text) for assert_err
    fff0s.o(.text) refers to prf.o(.text) for prf_env_get
    fff0s.o(.text) refers to fff0s.o(.constdata) for .constdata
    fff0s.o(.text) refers to fff0s_task.o(.constdata) for fff0s_default_handler
    fff0s.o(.constdata) refers to fff0s.o(.text) for fff0s_init
    fff0s_task.o(.text) refers to prf.o(.text) for prf_env_get
    fff0s_task.o(.text) refers to fff0s.o(.text) for fff0s_notify_fff1_lvl
    fff0s_task.o(.constdata) refers to fff0s_task.o(.text) for fff0s_fff1_level_upd_req_handler
    fff0s_task.o(.constdata) refers to fff0s_task.o(.constdata) for fff0s_default_state
    oads.o(.text) refers to arch_main_1.o(.text) for assert_err
    oads.o(.text) refers to flash.o(.text) for flash_write
    oads.o(.text) refers to wdt.o(.text) for wdt_disable
    oads.o(.text) refers to oad_common.o(.text) for calc_backup_sec_crc
    oads.o(.text) refers to uart.o(.text) for uart_printf
    oads.o(.text) refers to prf.o(.text) for prf_env_get
    oads.o(.text) refers to oads.o(.constdata) for .constdata
    oads.o(.text) refers to oads_task.o(.constdata) for braces_default_handler
    oads.o(.text) refers to oads.o(.bss) for .bss
    oads.o(.text) refers to oad_common.o(.bss) for hdr_back
    oads.o(.text) refers to oads.o(.data) for .data
    oads.o(.text) refers to mal.o(.text) for mal_get_conidx
    oads.o(.text) refers to app.o(.text) for appm_update_param
    oads.o(.constdata) refers to oads.o(.text) for oads_init
    oads_task.o(.text) refers to uart.o(.text) for uart_printf
    oads_task.o(.text) refers to prf.o(.text) for prf_env_get
    oads_task.o(.text) refers to oads.o(.text) for oadImgIdentifyWrite
    oads_task.o(.text) refers to oads_task.o(.constdata) for .constdata
    oads_task.o(.constdata) refers to oads_task.o(.text) for oads_enable_req_handler
    oads_task.o(.constdata) refers to oads_task.o(.constdata) for oads_default_state
    prf.o(.text) refers to ais.o(.text) for gmas_prf_itf_get
    prf.o(.text) refers to oads.o(.text) for oads_prf_itf_get
    prf.o(.text) refers to fff0s.o(.text) for fff0s_prf_itf_get
    prf.o(.text) refers to diss.o(.text) for diss_prf_itf_get
    prf.o(.text) refers to bass.o(.text) for bass_prf_itf_get
    prf.o(.text) refers to mal.o(.text) for mal_prf_itf_get
    prf.o(.text) refers to uart.o(.text) for uart_printf
    prf.o(.text) refers to prf.o(.bss) for .bss
    app.o(.text) refers to arch_main_1.o(.text) for assert_param
    app.o(.text) refers to app_dis.o(.text) for app_dis_init
    app.o(.text) refers to app_batt.o(.text) for app_batt_init
    app.o(.text) refers to app_oads.o(.text) for app_oads_init
    app.o(.text) refers to app_mesh.o(.text) for app_mesh_init
    app.o(.text) refers to uart.o(.text) for uart_printf
    app.o(.text) refers to app.o(.bss) for .bss
    app.o(.text) refers to app.o(.constdata) for .constdata
    app.o(.text) refers to app.o(.conststring) for .conststring
    app.o(.constdata) refers to app_task.o(.constdata) for appm_default_handler
    app.o(.constdata) refers to app_task.o(.data) for appm_state
    app.o(.constdata) refers to app_fff0.o(.text) for app_fff0_add_fff0s
    app.o(.constdata) refers to app_dis.o(.text) for app_dis_add_dis
    app.o(.constdata) refers to app_batt.o(.text) for app_batt_add_bas
    app.o(.constdata) refers to app_oads.o(.text) for app_oad_add_oads
    app.o(.constdata) refers to app_mesh.o(.text) for app_mesh_add_mesh
    app.o(.constdata) refers to app_ais.o(.text) for app_gma_add_gmas
    app_task.o(.text) refers to arch_main_1.o(.text) for assert_err
    app_task.o(.text) refers to uart.o(.text) for uart_printf
    app_task.o(.text) refers to app.o(.text) for appm_add_svc
    app_task.o(.text) refers to app_light_ali_server.o(.text) for light_ali_app_init
    app_task.o(.text) refers to app_mesh.o(.text) for app_mesh_add_models_server
    app_task.o(.text) refers to mesh_general_api.o(.text) for app_store_mesh_info
    app_task.o(.text) refers to app_batt.o(.text) for app_batt_enable_prf
    app_task.o(.text) refers to m_tb_state.o(.text) for m_tb_state_get_prov_state
    app_task.o(.text) refers to m_api.o(.text) for m_api_proxy_ctrl
    app_task.o(.text) refers to app_task.o(.conststring) for .conststring
    app_task.o(.text) refers to app.o(.bss) for app_env
    app_task.o(.text) refers to app_task.o(.constdata) for .constdata
    app_task.o(.text) refers to wdt.o(.data) for wdt_disable_flag
    app_task.o(.text) refers to app_batt.o(.constdata) for app_batt_table_handler
    app_task.o(.text) refers to app_mesh.o(.constdata) for app_mesh_table_handler
    app_task.o(.text) refers to app_fff0.o(.constdata) for app_fff0_table_handler
    app_task.o(.text) refers to app_dis.o(.constdata) for app_dis_table_handler
    app_task.o(.text) refers to app_oads.o(.constdata) for app_oads_table_handler
    app_task.o(.text) refers to app_ais.o(.constdata) for app_gmas_table_handler
    app_task.o(.text) refers to app_task.o(.data) for .data
    app_task.o(.constdata) refers to app_task.o(.text) for appm_msg_handler
    app_task.o(.constdata) refers to app_task.o(.constdata) for appm_default_state
    app_mesh.o(.text) refers to mesh_param_int.o(.text) for mesh_stack_param_init
    app_mesh.o(.text) refers to uart.o(.text) for uart_printf
    app_mesh.o(.text) refers to m_tb_key.o(.text) for m_tb_key_app_find
    app_mesh.o(.text) refers to m_tb_mio.o(.text) for m_tb_mio_bind
    app_mesh.o(.text) refers to app_light_ali_server.o(.text) for app_ai_lights_models_init
    app_mesh.o(.text) refers to ali_config.o(.text) for user_data_contains_ali_data
    app_mesh.o(.text) refers to uwrite4.o(.text) for __aeabi_uwrite4
    app_mesh.o(.text) refers to m_bcn.o(.text) for m_bcn_stop_tx_unprov_bcn
    app_mesh.o(.text) refers to m_prov_bearer.o(.text) for m_prov_bearer_gatt_stop
    app_mesh.o(.text) refers to led.o(.text) for led_deinit
    app_mesh.o(.text) refers to rwip.o(.text) for rwip_prevent_sleep_clear
    app_mesh.o(.text) refers to prf.o(.text) for prf_get_task_from_id
    app_mesh.o(.text) refers to m_prov.o(.text) for m_link_open_ack_dis
    app_mesh.o(.text) refers to mesh_tb_timer.o(.text) for mesh_tb_timer_set
    app_mesh.o(.text) refers to app_mm_msg.o(.text) for app_models_msg_pro_handler
    app_mesh.o(.text) refers to m_tb_store_nvds.o(.text) for m_tb_store_config
    app_mesh.o(.text) refers to m_tb_state.o(.text) for m_tb_state_set_relay_state
    app_mesh.o(.text) refers to mesh_log.o(.text) for mem_rcopy
    app_mesh.o(.text) refers to mesh_general_api.o(.text) for app_mesh_enable
    app_mesh.o(.text) refers to app_mesh.o(.bss) for .bss
    app_mesh.o(.text) refers to app_mesh.o(.conststring) for .conststring
    app_mesh.o(.text) refers to app_mesh.o(.constdata) for .constdata
    app_mesh.o(.text) refers to mesh_param_int.o(.bss) for m_stack_param
    app_mesh.o(.text) refers to app_mesh.o(.data) for .data
    app_mesh.o(.text) refers to led.o(.data) for quick_onoff_count
    app_mesh.o(.text) refers to app_light_ali_server.o(.data) for g_ln_mdl_lid
    app_mesh.o(.text) refers to m_api.o(.text) for m_api_proxy_ctrl
    app_mesh.o(.text) refers to gma.o(.data) for adv_gma_data
    app_mesh.o(.constdata) refers to app_mesh.o(.text) for app_mesh_msg_dflt_handler
    app_mesh.o(.constdata) refers to app_mesh.o(.constdata) for app_mesh_msg_handler_list
    app_mm_msg.o(.text) refers to uart.o(.text) for uart_printf
    app_mm_msg.o(.text) refers to led.o(.text) for light_lightness_set
    app_mm_msg.o(.text) refers to app_mm_msg.o(.conststring) for .conststring
    app_mm_msg.o(.text) refers to led.o(.data) for ctl_temperature
    app_mm_msg.o(.text) refers to app_light_ali_server.o(.data) for g_oo_mdl_lid
    app_mm_msg.o(.text) refers to app_light_ali_server.o(.data) for g_hsl_mdl_lid
    mesh_general_api.o(.text) refers to prf.o(.text) for prf_get_task_from_id
    mesh_general_api.o(.text) refers to lld_adv_test.o(.text) for lld_adv_test_start
    mesh_general_api.o(.text) refers to uart.o(.text) for uart_printf
    mesh_general_api.o(.text) refers to mal.o(.data) for p_mal_env
    app_batt.o(.text) refers to prf.o(.text) for prf_get_task_from_id
    app_batt.o(.text) refers to arch_main_1.o(.text) for assert_err
    app_batt.o(.text) refers to app_batt.o(.data) for .data
    app_batt.o(.constdata) refers to app_batt.o(.text) for app_batt_msg_dflt_handler
    app_batt.o(.constdata) refers to app_batt.o(.constdata) for app_batt_msg_handler_list
    app_dis.o(.text) refers to arch_main_1.o(.text) for assert_err
    app_dis.o(.constdata) refers to app_dis.o(.text) for diss_value_req_ind_handler
    app_dis.o(.constdata) refers to app_dis.o(.constdata) for app_dis_msg_handler_list
    app_fff0.o(.text) refers to prf.o(.text) for prf_get_task_from_id
    app_fff0.o(.text) refers to uart.o(.text) for uart_printf
    app_fff0.o(.text) refers to mesh_log.o(.text) for mesh_buffer_to_hex
    app_fff0.o(.text) refers to app_fff0.o(.data) for .data
    app_fff0.o(.text) refers to app_fff0.o(.constdata) for .constdata
    app_fff0.o(.constdata) refers to app_fff0.o(.text) for app_fff0_msg_dflt_handler
    app_fff0.o(.constdata) refers to app_fff0.o(.constdata) for app_fff0_msg_handler_list
    app_oads.o(.text) refers to uart.o(.text) for uart_printf
    app_oads.o(.text) refers to prf.o(.text) for prf_get_task_from_id
    app_oads.o(.text) refers to oads.o(.text) for oadImgIdentifyWrite
    app_oads.o(.text) refers to app_oads.o(.data) for .data
    app_oads.o(.text) refers to app_oads.o(.constdata) for .constdata
    app_oads.o(.constdata) refers to app_oads.o(.text) for app_oads_msg_dflt_handler
    app_oads.o(.constdata) refers to app_oads.o(.constdata) for app_oads_msg_handler_list
    oad_common.o(.text) refers to uart.o(.text) for uart_printf
    oad_common.o(.text) refers to flash.o(.text) for flash_erase
    oad_common.o(.text) refers to oad_common.o(.bss) for .bss
    oad_common.o(.text) refers to oad_common.o(.constdata) for .constdata
    ali_config.o(.text) refers to flash.o(.text) for flash_read_data
    ali_config.o(.text) refers to mesh_log.o(.text) for mesh_buffer_to_hex
    ali_config.o(.text) refers to uart.o(.text) for uart_printf
    ali_config.o(.text) refers to ali_config.o(.constdata) for .constdata
    app_light_ali_server.o(.text) refers to uart.o(.text) for uart_printf
    app_light_ali_server.o(.text) refers to led.o(.text) for light_state_get
    app_light_ali_server.o(.text) refers to mesh_tb_timer.o(.text) for mesh_tb_timer_set
    app_light_ali_server.o(.text) refers to mm_vendors.o(.text) for mm_vendors_cfm_recved
    app_light_ali_server.o(.text) refers to app_light_ali_server.o(.constdata) for .constdata
    app_light_ali_server.o(.text) refers to app_light_ali_server.o(.data) for .data
    app_light_ali_server.o(.text) refers to app_light_ali_server.o(.bss) for .bss
    app_light_ali_server.o(.text) refers to led.o(.data) for quick_onoff_count
    app_light_ali_server.o(.text) refers to app_light_ali_server.o(.conststring) for .conststring
    app_light_ali_server.o(.text) refers to flash.o(.text) for flash_read
    app_light_ali_server.o(.text) refers to mm_tb_state.o(.text) for mm_tb_state_get_lid
    app_light_ali_server.o(.text) refers to m_fnd_scenes.o(.text) for m_fnd_scenes_init
    app_light_ali_server.o(.text) refers to m_fnd_blob_transfer.o(.text) for m_fnd_blob_init
    app_light_ali_server.o(.text) refers to m_fnd_fw_update.o(.text) for m_fnd_fw_update_init
    app_light_ali_server.o(.text) refers to mm_gens_oo.o(.text) for mm_gens_oo_register
    app_light_ali_server.o(.text) refers to mm_lights_ln.o(.text) for mm_lights_ln_register
    app_light_ali_server.o(.text) refers to mm_lights_ctl.o(.text) for mm_lights_ctl_register
    app_light_ali_server.o(.text) refers to mm_tb_bind.o(.text) for mm_tb_bind_add_group
    app_light_ali_server.o(.text) refers to mm_api.o(.text) for mm_api_grp_add_local
    cli_krhino.o(.text) refers to uart.o(.text) for uart_send
    cli_krhino.o(.text) refers to vsprintf.o(.text) for vsprintf
    cli_krhino.o(.text) refers to strchr.o(.text) for strchr
    cli_krhino.o(.text) refers to strncmp.o(.text) for strncmp
    cli_krhino.o(.text) refers to strncpy.o(.text) for strncpy
    cli_krhino.o(.text) refers to cli_krhino.o(.bss) for .bss
    cli_krhino.o(.text) refers to cli_krhino.o(.data) for .data
    cli_krhino.o(.text) refers to rwble.o(.text) for rwble_version
    cli_krhino.o(.text) refers to strcmp.o(.text) for strcmp
    cli_krhino.o(.text) refers to wdt.o(.text) for wdt_reset
    cli_krhino.o(.text) refers to rt_memmove_w.o(.text) for __aeabi_memmove4
    cli_krhino.o(.text) refers to cli_krhino.o(.constdata) for .constdata
    cli_krhino.o(.constdata) refers to cli_krhino.o(.conststring) for .conststring
    cli_krhino.o(.constdata) refers to cli_krhino.o(.text) for help_cmd
    led.o(.text) refers to dflt_clz.o(x$fpl$dfltu) for __aeabi_ui2d
    led.o(.text) refers to dmul.o(x$fpl$dmul) for __aeabi_dmul
    led.o(.text) refers to dfixu.o(x$fpl$dfixu) for __aeabi_d2uiz
    led.o(.text) refers to pwm.o(.text) for pwm_duty_cycle
    led.o(.text) refers to uart.o(.text) for uart_printf
    led.o(.text) refers to rwip.o(.text) for rwip_prevent_sleep_set
    led.o(.text) refers to faddsub_clz.o(x$fpl$fadd) for __aeabi_fadd
    led.o(.text) refers to faddsub_clz.o(x$fpl$fsub) for __aeabi_fsub
    led.o(.text) refers to fmul.o(x$fpl$fmul) for __aeabi_fmul
    led.o(.text) refers to faddsub_clz.o(x$fpl$frsb) for __aeabi_frsub
    led.o(.text) refers to scalbnf.o(x$fpl$scalbnf) for __ARM_scalbnf
    led.o(.text) refers to fflt_clz.o(x$fpl$ffltu) for __aeabi_ui2f
    led.o(.text) refers to fdiv.o(x$fpl$fdiv) for __aeabi_fdiv
    led.o(.text) refers to f2d.o(x$fpl$f2d) for __aeabi_f2d
    led.o(.text) refers to daddsub_clz.o(x$fpl$dadd) for __aeabi_dadd
    led.o(.text) refers to d2f.o(x$fpl$d2f) for __aeabi_d2f
    led.o(.text) refers to scalbn.o(x$fpl$scalbn) for __ARM_scalbn
    led.o(.text) refers to daddsub_clz.o(x$fpl$dsub) for __aeabi_dsub
    led.o(.text) refers to ceil.o(i.ceil) for ceil
    led.o(.text) refers to led.o(.bss) for .bss
    led.o(.text) refers to led.o(.data) for .data
    led.o(.text) refers to dflt_clz.o(x$fpl$dflt) for __aeabi_i2d
    led.o(.text) refers to ddiv.o(x$fpl$ddiv) for __aeabi_ddiv
    led.o(.text) refers to round.o(i.round) for round
    led.o(.text) refers to m_tb_state.o(.text) for m_tb_state_get_prov_state
    led.o(.text) refers to led.o(.constdata) for .constdata
    soft_aes.o(.text) refers to uart.o(.text) for uart_printf
    soft_aes.o(.text) refers to soft_aes.o(.constdata) for .constdata
    m_api.o(.text) refers to uart.o(.text) for uart_printf
    m_api.o(.text) refers to m_tb_state.o(.text) for m_tb_state_get_prov_state
    m_api.o(.text) refers to m_bcn.o(.text) for m_bcn_state_update
    m_api.o(.text) refers to m_prov.o(.text) for m_prov_start
    m_api.o(.text) refers to m_bearer.o(.text) for m_bearer_start
    m_api.o(.text) refers to mesh_tb_buf.o(.text) for mesh_tb_buf_alloc
    m_api.o(.text) refers to m_lay_access.o(.text) for m_lay_access_publish
    m_api.o(.text) refers to m_tb_mio.o(.text) for m_tb_mio_register_model
    m_api.o(.text) refers to m_tb_store_nvds.o(.text) for m_tb_store_load
    m_api.o(.text) refers to m_tb_key.o(.text) for m_tb_key_iv_upd_test_mode_ind
    m_api.o(.text) refers to m_fnd_hlths.o(.text) for m_fnd_hlths_status_ind
    m_api.o(.text) refers to m_lay_proxy.o(.text) for m_lay_proxy_bearer_adv_ctrl
    m_api.o(.text) refers to m_api_msg.o(.text) for m_api_msg_handler
    m_api.o(.text) refers to m_tb.o(.text) for m_tb_init
    m_api.o(.text) refers to m_lay.o(.text) for m_lay_init
    m_api.o(.text) refers to m_fnd.o(.text) for m_fnd_init
    m_api.o(.text) refers to mal.o(.text) for mal_msg_alloc
    m_api.o(.text) refers to m_api.o(.constdata) for .constdata
    m_api.o(.text) refers to m_api.o(.data) for .data
    m_api_msg.o(.text) refers to mal.o(.text) for mal_app_id_get
    m_api_msg.o(.text) refers to m_api.o(.text) for m_api_model_get_task_id
    m_api_msg.o(.text) refers to uart.o(.text) for uart_printf
    m_api_msg.o(.text) refers to m_api_msg.o(.constdata) for .constdata
    m_api_msg.o(.text) refers to mesh_tb_buf.o(.text) for mesh_tb_buf_alloc
    m_api_msg.o(.constdata) refers to m_api_msg.o(.text) for m_api_msg_enabled_cb
    mesh_api.o(.text) refers to mesh_tb.o(.text) for mesh_tb_init
    mesh_api.o(.text) refers to mesh_api_msg.o(.text) for mesh_api_msg_init
    mesh_api.o(.text) refers to mal_timer.o(.text) for mal_timer_get_clock
    mesh_api.o(.text) refers to mesh_tb_buf.o(.text) for mesh_tb_buf_block_alloc
    mesh_api.o(.text) refers to mesh_api.o(.data) for .data
    mesh_api_msg.o(.text) refers to mal.o(.text) for mal_msg_alloc
    mesh_api_msg.o(.text) refers to mesh_api.o(.text) for mesh_api_get_run_time
    mesh_api_msg.o(.text) refers to mesh_api_msg.o(.constdata) for .constdata
    mesh_api_msg.o(.constdata) refers to mesh_api_msg.o(.text) for mesh_api_msg_buf_block_freed_cb
    mesh_param_int.o(.text) refers to mesh_param_int.o(.bss) for .bss
    mm_api_msg.o(.text) refers to mal.o(.text) for mal_msg_alloc
    mm_api_msg.o(.text) refers to mm_api.o(.text) for mm_api_set
    mm_api_msg.o(.text) refers to uart.o(.text) for uart_printf
    mm_api_msg.o(.text) refers to mm_api_msg.o(.constdata) for .constdata
    mm_api_msg.o(.constdata) refers to mm_api_msg.o(.text) for mm_api_msg_cb_register_ind
    mm_api.o(.text) refers to arch_main_1.o(.text) for assert_err
    mm_api.o(.text) refers to mm_gens.o(.text) for mm_gens_register
    mm_api.o(.text) refers to mm_lights.o(.text) for mm_lights_register
    mm_api.o(.text) refers to uart.o(.text) for uart_printf
    mm_api.o(.text) refers to mm_tb_state.o(.text) for mm_tb_state_get_env
    mm_api.o(.text) refers to mm_tb.o(.text) for mm_tb_init
    mm_api.o(.text) refers to mm_route.o(.text) for mm_route_init
    mm_api.o(.text) refers to mm_api_msg.o(.text) for mm_api_msg_init
    mm_api.o(.text) refers to mm_api.o(.data) for .data
    m_fnd_blob_transfer.o(.text) refers to m_api.o(.text) for m_api_model_rsp_send
    m_fnd_blob_transfer.o(.text) refers to uwrite4.o(.text) for __aeabi_uwrite4
    m_fnd_blob_transfer.o(.text) refers to uread4.o(.text) for __aeabi_uread4
    m_fnd_blob_transfer.o(.text) refers to flash.o(.text) for flash_erase
    m_fnd_blob_transfer.o(.text) refers to oad_common.o(.text) for make_crc32_table
    m_fnd_blob_transfer.o(.text) refers to mesh_tb_buf.o(.text) for mesh_tb_buf_release
    m_fnd_blob_transfer.o(.text) refers to m_fnd_blob_transfer.o(.data) for .data
    m_fnd_blob_transfer.o(.text) refers to m_fnd_blob_transfer.o(.bss) for .bss
    m_fnd_blob_transfer.o(.text) refers to mal.o(.text) for mal_malloc
    m_fnd_blob_transfer.o(.text) refers to m_fnd_blob_transfer.o(.constdata) for .constdata
    m_fnd_blob_transfer.o(.constdata) refers to m_fnd_blob_transfer.o(.text) for m_fnd_blob_cb_rx
    m_fnd_fw_update.o(.text) refers to m_api.o(.text) for m_api_model_rsp_send
    m_fnd_fw_update.o(.text) refers to oad_common.o(.text) for calc_backup_sec_crc
    m_fnd_fw_update.o(.text) refers to wdt.o(.text) for wdt_reset
    m_fnd_fw_update.o(.text) refers to mesh_tb_buf.o(.text) for mesh_tb_buf_release
    m_fnd_fw_update.o(.text) refers to mal.o(.text) for mal_malloc
    m_fnd_fw_update.o(.text) refers to flash.o(.text) for flash_read
    m_fnd_fw_update.o(.text) refers to m_fnd_fw_update.o(.data) for .data
    m_fnd_fw_update.o(.text) refers to oad_common.o(.bss) for hdr_back
    m_fnd_fw_update.o(.text) refers to m_fnd_fw_update.o(.bss) for .bss
    m_fnd_fw_update.o(.text) refers to m_fnd_fw_update.o(.constdata) for .constdata
    m_fnd_fw_update.o(.constdata) refers to m_fnd_fw_update.o(.text) for m_fnd_fw_update_cb_rx
    m_fnd_scenes.o(.text) refers to m_api.o(.text) for m_api_model_rsp_send
    m_fnd_scenes.o(.text) refers to mesh_tb_buf.o(.text) for mesh_tb_buf_release
    m_fnd_scenes.o(.text) refers to mal.o(.text) for mal_malloc
    m_fnd_scenes.o(.text) refers to m_fnd_scenes.o(.data) for .data
    m_fnd_scenes.o(.text) refers to m_fnd_scenes.o(.constdata) for .constdata
    m_fnd_scenes.o(.constdata) refers to m_fnd_scenes.o(.text) for m_fnd_scenes_cb_rx
    mm_vendors.o(.text) refers to mm_tb_bind.o(.text) for mm_tb_bind_get_trans_info
    mm_vendors.o(.text) refers to mm_route.o(.text) for mm_route_buf_alloc
    mm_vendors.o(.text) refers to arch_main_1.o(.text) for assert_err
    mm_vendors.o(.text) refers to mesh_tb_timer.o(.text) for mesh_tb_timer_set
    mm_vendors.o(.text) refers to mm_tb_state.o(.text) for mm_tb_state_get_env
    mm_vendors.o(.text) refers to mm_tb.o(.text) for mm_tb_get_trans_time_ms
    mm_vendors.o(.text) refers to mm_api.o(.text) for mm_api_send_srv_array_state_upd_ind
    mm_vendors.o(.text) refers to uart.o(.text) for uart_printf
    mm_vendors.o(.text) refers to m_api.o(.text) for m_api_register_model
    mm_vendors.o(.text) refers to m_tb_key.o(.text) for m_tb_key_app_find
    mm_vendors.o(.text) refers to mm_vendors.o(.conststring) for .conststring
    mm_vendors.o(.text) refers to mm_vendors.o(.data) for .data
    mm_vendors.o(.text) refers to mm_route.o(.constdata) for mm_route_cb
    mm_vendors.o(.text) refers to mm_tb_replay.o(.text) for mm_tb_replay_is_retx
    mm_gens.o(.text) refers to mm_tb_state.o(.text) for mm_tb_state_get_lid
    mm_gens.o(.text) refers to mm_gens_oo.o(.text) for mm_gens_oo_register
    mm_gens.o(.text) refers to uart.o(.text) for uart_printf
    mm_gens.o(.text) refers to mm_tb_bind.o(.text) for mm_tb_bind_add_group
    mm_gens.o(.text) refers to mm_gens.o(.constdata) for .constdata
    mm_gens.o(.text) refers to mm_gens.o(.conststring) for .conststring
    mm_gens_oo.o(.text) refers to mm_tb_bind.o(.text) for mm_tb_bind_get_trans_info
    mm_gens_oo.o(.text) refers to mm_route.o(.text) for mm_route_buf_alloc
    mm_gens_oo.o(.text) refers to uart.o(.text) for uart_printf
    mm_gens_oo.o(.text) refers to mesh_tb_timer.o(.text) for mesh_tb_timer_set
    mm_gens_oo.o(.text) refers to mm_tb_state.o(.text) for mm_tb_state_publish_param_ind
    mm_gens_oo.o(.text) refers to m_api.o(.text) for m_api_register_model
    mm_gens_oo.o(.text) refers to mm_api.o(.text) for mm_api_send_register_ind
    mm_gens_oo.o(.text) refers to mm_tb.o(.text) for mm_tb_get_trans_time_ms
    mm_gens_oo.o(.text) refers to gpio.o(.text) for gpio_set
    mm_gens_oo.o(.text) refers to mm_tb_replay.o(.text) for mm_tb_replay_is_retx
    mm_gens_oo.o(.text) refers to mm_gens_oo.o(.constdata) for .constdata
    mm_gens_oo.o(.text) refers to mm_route.o(.constdata) for mm_route_cb
    mm_lights.o(.text) refers to mm_tb_state.o(.text) for mm_tb_state_get_lid
    mm_lights.o(.text) refers to mm_api.o(.text) for mm_api_register_server
    mm_lights.o(.text) refers to uart.o(.text) for uart_printf
    mm_lights.o(.text) refers to mm_lights_ln.o(.text) for mm_lights_ln_register
    mm_lights.o(.text) refers to mm_tb_bind.o(.text) for mm_tb_bind_add_group
    mm_lights.o(.text) refers to mm_lights_ctl.o(.text) for mm_lights_ctl_register
    mm_lights.o(.text) refers to mm_lights_hsl.o(.text) for mm_lights_hsl_register
    mm_lights.o(.text) refers to mm_lights.o(.constdata) for .constdata
    mm_lights.o(.text) refers to mm_lights.o(.conststring) for .conststring
    mm_lights.o(.text) refers to arch_main_1.o(.text) for assert_param
    mm_lights.o(.text) refers to llmul.o(.text) for __aeabi_lmul
    mm_lights_ctl.o(.text) refers to mm_tb_bind.o(.text) for mm_tb_bind_get_trans_info
    mm_lights_ctl.o(.text) refers to mm_route.o(.text) for mm_route_buf_alloc
    mm_lights_ctl.o(.text) refers to uart.o(.text) for uart_printf
    mm_lights_ctl.o(.text) refers to mm_lights_ln.o(.text) for mm_lights_ln_get
    mm_lights_ctl.o(.text) refers to mm_tb_replay.o(.text) for mm_tb_replay_is_retx
    mm_lights_ctl.o(.text) refers to mm_lights_ctl.o(.constdata) for .constdata
    mm_lights_ctl.o(.text) refers to mesh_tb_timer.o(.text) for mesh_tb_timer_set
    mm_lights_ctl.o(.text) refers to mm_tb_state.o(.text) for mm_tb_state_publish_param_ind
    mm_lights_ctl.o(.text) refers to m_api.o(.text) for m_api_register_model
    mm_lights_ctl.o(.text) refers to mm_api.o(.text) for mm_api_send_register_ind
    mm_lights_ctl.o(.text) refers to mm_route.o(.constdata) for mm_route_cb
    mm_lights_ctl.o(.text) refers to mm_tb.o(.text) for mm_tb_get_trans_time_ms
    mm_lights_hsl.o(.text) refers to mm_tb_bind.o(.text) for mm_tb_bind_get_trans_info
    mm_lights_hsl.o(.text) refers to mm_route.o(.text) for mm_route_buf_alloc
    mm_lights_hsl.o(.text) refers to uart.o(.text) for uart_printf
    mm_lights_hsl.o(.text) refers to mm_lights_ln.o(.text) for mm_lights_ln_get
    mm_lights_hsl.o(.text) refers to mm_lights_hsl.o(.constdata) for .constdata
    mm_lights_hsl.o(.text) refers to mm_tb_replay.o(.text) for mm_tb_replay_is_retx
    mm_lights_hsl.o(.text) refers to mesh_tb_timer.o(.text) for mesh_tb_timer_set
    mm_lights_hsl.o(.text) refers to mm_tb_state.o(.text) for mm_tb_state_publish_param_ind
    mm_lights_hsl.o(.text) refers to mm_tb.o(.text) for mm_tb_get_trans_time_ms
    mm_lights_hsl.o(.text) refers to mm_api.o(.text) for mm_api_send_srv_state_upd_ind
    mm_lights_hsl.o(.text) refers to m_api.o(.text) for m_api_register_model
    mm_lights_hsl.o(.text) refers to mm_route.o(.constdata) for mm_route_cb
    mm_lights_ln.o(.text) refers to mm_tb_bind.o(.text) for mm_tb_bind_get_trans_info
    mm_lights_ln.o(.text) refers to mm_route.o(.text) for mm_route_buf_alloc
    mm_lights_ln.o(.text) refers to uart.o(.text) for uart_printf
    mm_lights_ln.o(.text) refers to arch_main_1.o(.text) for assert_err
    mm_lights_ln.o(.text) refers to mm_lights.o(.text) for mm_lights_isqrt
    mm_lights_ln.o(.text) refers to mm_tb_replay.o(.text) for mm_tb_replay_is_retx
    mm_lights_ln.o(.text) refers to mesh_tb_timer.o(.text) for mesh_tb_timer_set
    mm_lights_ln.o(.text) refers to mm_api.o(.text) for mm_api_send_srv_state_upd_ind
    mm_lights_ln.o(.text) refers to mm_lights_ln.o(.constdata) for .constdata
    mm_lights_ln.o(.text) refers to mm_lights_ln.o(.conststring) for .conststring
    mm_lights_ln.o(.text) refers to mm_tb_state.o(.text) for mm_tb_state_publish_param_ind
    mm_lights_ln.o(.text) refers to m_api.o(.text) for m_api_register_model
    mm_lights_ln.o(.text) refers to mm_tb.o(.text) for mm_tb_get_trans_time_ms
    mm_lights_ln.o(.text) refers to mm_route.o(.constdata) for mm_route_cb
    aes.o(.text) refers to aes.o(.constdata) for .constdata
    ais.o(.text) refers to arch_main_1.o(.text) for assert_err
    ais.o(.text) refers to prf.o(.text) for prf_env_get
    ais.o(.text) refers to ais.o(.constdata) for .constdata
    ais.o(.text) refers to ais_task.o(.constdata) for gmas_default_handler
    ais.o(.constdata) refers to ais.o(.text) for gmas_init
    ais_task.o(.text) refers to prf.o(.text) for prf_env_get
    ais_task.o(.text) refers to ais.o(.text) for gmas_data_send
    ais_task.o(.text) refers to uart.o(.text) for uart_printf
    ais_task.o(.text) refers to ais_task.o(.data) for .data
    ais_task.o(.constdata) refers to ais_task.o(.text) for gma_data_send_handler
    ais_task.o(.constdata) refers to ais_task.o(.constdata) for gmas_default_state
    app_ais.o(.text) refers to gma.o(.text) for gma_recv_decode
    app_ais.o(.text) refers to prf.o(.text) for prf_get_task_from_id
    app_ais.o(.constdata) refers to app_ais.o(.text) for app_gma_msg_dflt_handler
    app_ais.o(.constdata) refers to app_ais.o(.constdata) for app_gmas_msg_handler_list
    gma.o(.text) refers to _printf_pad.o(.text) for _printf_pre_padding
    gma.o(.text) refers to _printf_percent.o(.ARM.Collect$$_printf_percent$$00000000) for _printf_percent
    gma.o(.text) refers to _printf_x.o(.ARM.Collect$$_printf_percent$$0000000C) for _printf_x
    gma.o(.text) refers to _printf_s.o(.ARM.Collect$$_printf_percent$$00000014) for _printf_s
    gma.o(.text) refers to _printf_hex_int_ll_ptr.o(.text) for _printf_longlong_hex
    gma.o(.text) refers to _printf_str.o(.text) for _printf_str
    gma.o(.text) refers to __2sprintf.o(.text) for __2sprintf
    gma.o(.text) refers to uread4.o(.text) for __aeabi_uread4
    gma.o(.text) refers to sha256.o(.text) for ali_sha256_init
    gma.o(.text) refers to uart.o(.text) for uart_printf
    gma.o(.text) refers to app.o(.text) for appm_ble_is_connected
    gma.o(.text) refers to app_ais.o(.text) for app_gma_data_send
    gma.o(.text) refers to aes.o(.text) for aes_cbc_encrypt_pkcs7
    gma.o(.text) refers to gma.o(.bss) for .bss
    gma.o(.text) refers to gma.o(.data) for .data
    gma.o(.text) refers to uwrite4.o(.text) for __aeabi_uwrite4
    gma.o(.text) refers to gma.o(.conststring) for .conststring
    sha256.o(.text) refers to sha256.o(.constdata) for .constdata
    rf_pn9_test.o(.text) refers to uart.o(.text) for uart_send
    rf_pn9_test.o(.text) refers to rf_pn9_test.o(.data) for .data
    lld_adv_test.o(.text) refers to arch_main_1.o(.text) for assert_param
    lld_adv_test.o(.text) refers to lld_adv_test.o(.bss) for .bss
    lld_adv_test.o(.text) refers to lld_adv_test.o(.data) for .data
    lld_adv_test.o(.text) refers to mal_adv.o(.text) for mal_adv_report_is_register
    mal.o(.text) refers to mesh.o(.text) for mesh_get_env_size
    mal.o(.text) refers to mal_con.o(.text) for mal_con_init
    mal.o(.text) refers to mal_task.o(.text) for mal_task_init
    mal.o(.text) refers to mal_sec.o(.text) for mal_sec_init
    mal.o(.text) refers to mal_timer.o(.text) for mal_timer_init
    mal.o(.text) refers to mal_djob.o(.text) for mal_djob_init
    mal.o(.text) refers to mal_adv.o(.text) for mal_adv_init
    mal.o(.text) refers to prf.o(.text) for prf_env_get
    mal.o(.text) refers to mal.o(.data) for .data
    mal.o(.text) refers to mal.o(.constdata) for .constdata
    mal.o(.constdata) refers to mal.o(.text) for mal_init
    mal_timer.o(.text) refers to prf.o(.text) for prf_get_task_from_id
    mal_timer.o(.text) refers to mesh_tb_timer.o(.text) for mesh_tb_timer_expired
    mal_timer.o(.text) refers to mal.o(.data) for p_mal_env
    mesh_tb.o(.text) refers to mesh_tb_sec.o(.text) for mesh_tb_sec_init
    mesh_tb.o(.text) refers to mesh_tb_buf.o(.text) for mesh_tb_buf_init
    mesh_tb.o(.text) refers to mesh_tb_timer.o(.text) for mesh_tb_timer_init
    mesh_tb_buf.o(.text) refers to mal.o(.text) for mal_malloc
    mesh_tb_buf.o(.text) refers to uart.o(.text) for uart_printf
    mesh_tb_buf.o(.text) refers to mesh_tb_buf.o(.data) for .data
    mesh_tb_buf.o(.text) refers to mesh_tb_buf.o(.constdata) for .constdata
    mesh_tb_buf.o(.text) refers to mesh_tb_buf.o(.conststring) for .conststring
    mesh_tb_timer.o(.text) refers to mal_timer.o(.text) for mal_timer_get_time_ms
    mesh_tb_timer.o(.text) refers to mesh_tb_timer.o(.data) for .data
    m_bcn.o(.text) refers to m_tb_key.o(.text) for m_tb_key_net_get
    m_bcn.o(.text) refers to uart.o(.text) for uart_printf
    m_bcn.o(.text) refers to m_bcn.o(i.__ARM_common_ctz) for __ARM_common_ctz
    m_bcn.o(.text) refers to mesh_tb_buf.o(.text) for mesh_tb_buf_release
    m_bcn.o(.text) refers to mesh_tb_sec.o(.text) for mesh_tb_sec_cmac_start
    m_bcn.o(.text) refers to arch_main_1.o(.text) for assert_err
    m_bcn.o(.text) refers to m_bcn.o(.data) for .data
    m_bcn.o(.text) refers to m_bcn.o(.constdata) for .constdata
    m_bcn.o(.text) refers to mesh_tb_timer.o(.text) for mesh_tb_timer_set
    m_bcn.o(.text) refers to m_bearer.o(.text) for m_bearer_connect_client_cb
    m_bcn.o(.text) refers to mesh_param_int.o(.bss) for m_stack_param
    m_bcn.o(.text) refers to m_bearer.o(.constdata) for m_bearer_api
    m_bcn.o(.text) refers to m_tb_state.o(.text) for m_tb_state_get_prov_state
    m_bcn.o(.constdata) refers to m_bcn.o(.text) for m_bcn_cb_sent
    m_bearer.o(.text) refers to m_bearer_adv.o(.text) for m_bearer_adv_tx_prepare
    m_bearer.o(.text) refers to m_bearer_gatt.o(.text) for m_bearer_gatt_tx_prepare
    m_bearer.o(.text) refers to uart.o(.text) for uart_printf
    m_bearer.o(.text) refers to mesh_tb_buf.o(.text) for mesh_tb_buf_acquire
    m_bearer.o(.text) refers to mal_djob.o(.text) for mal_djob_reg
    m_bearer.o(.text) refers to m_bearer.o(.data) for .data
    m_bearer.o(.text) refers to m_bearer.o(.constdata) for .constdata
    m_bearer.o(.constdata) refers to m_bearer.o(.text) for m_bearer_send
    m_fnd.o(.text) refers to m_fnd_confs.o(.text) for m_fnd_confs_init
    m_fnd.o(.text) refers to m_fnd_hlths.o(.text) for m_fnd_hlths_init
    m_fnd_hlths.o(.text) refers to m_api.o(.text) for m_api_model_rsp_send
    m_fnd_hlths.o(.text) refers to uart.o(.text) for uart_printf
    m_fnd_hlths.o(.text) refers to m_tb_state.o(.text) for m_tb_state_set_attention_state
    m_fnd_hlths.o(.text) refers to mesh_tb_buf.o(.text) for mesh_tb_buf_release
    m_fnd_hlths.o(.text) refers to m_tb_mio.o(.text) for m_tb_mio_get_period
    m_fnd_hlths.o(.text) refers to m_fnd_hlths.o(.data) for .data
    m_fnd_hlths.o(.text) refers to m_fnd_hlths.o(.constdata) for .constdata
    m_fnd_hlths.o(.constdata) refers to m_fnd_hlths.o(.text) for m_fnd_hlths_cb_rx
    m_lay.o(.text) refers to m_lay_net.o(.text) for m_lay_net_get_env_size
    m_lay.o(.text) refers to m_lay_ltrans.o(.text) for m_lay_ltrans_get_env_size
    m_lay.o(.text) refers to m_lay_utrans.o(.text) for m_lay_utrans_get_env_size
    m_lay.o(.text) refers to m_lay_access.o(.text) for m_lay_access_get_env_size
    m_lay.o(.text) refers to m_lay_hb.o(.text) for m_lay_hb_get_env_size
    m_lay.o(.text) refers to m_lay_proxy.o(.text) for m_lay_proxy_get_env_size
    m_lay.o(.text) refers to m_bearer_adv.o(.text) for m_bearer_adv_connect_api_al
    m_lay.o(.text) refers to m_bearer_gatt.o(.text) for m_bearer_gatt_connect_api_al
    m_lay.o(.text) refers to m_bearer.o(.text) for m_bearer_connect_client_cb
    m_lay.o(.text) refers to m_tb_state.o(.text) for m_tb_state_set_hb_cb
    m_lay.o(.text) refers to mal_adv.o(.constdata) for mal_adv_api
    m_lay.o(.text) refers to mal_con.o(.constdata) for mal_con_api
    m_lay.o(.text) refers to m_bearer.o(.constdata) for m_bearer_api
    m_lay.o(.text) refers to m_lay_net.o(.constdata) for m_lay_net_cb
    m_lay.o(.text) refers to m_lay_ltrans.o(.constdata) for m_lay_ltrans_cb
    m_lay.o(.text) refers to m_lay_net.o(.constdata) for m_lay_net_api
    m_lay.o(.text) refers to m_lay_utrans.o(.constdata) for m_lay_utrans_cb
    m_lay.o(.text) refers to m_lay_ltrans.o(.constdata) for m_lay_ltrans_api
    m_lay.o(.text) refers to m_lay_access.o(.constdata) for m_lay_access_cb
    m_lay.o(.text) refers to m_lay_hb.o(.constdata) for m_lay_hb_cb
    m_lay.o(.text) refers to m_lay_utrans.o(.constdata) for m_lay_utrans_api
    m_lay.o(.text) refers to m_lay_hb.o(.constdata) for m_lay_hb_state_cb
    m_lay.o(.text) refers to m_lay_proxy.o(.constdata) for m_lay_proxy_cb_net
    m_lay_access.o(.text) refers to mesh_tb_buf.o(.text) for mesh_tb_buf_head_reserve
    m_lay_access.o(.text) refers to m_tb_key.o(.text) for m_tb_key_app_get
    m_lay_access.o(.text) refers to uart.o(.text) for uart_printf
    m_lay_access.o(.text) refers to m_tb_mio.o(.text) for m_tb_mio_cb_get
    m_lay_access.o(.text) refers to mesh_tb_timer.o(.text) for mesh_tb_timer_set
    m_lay_access.o(.text) refers to mal_djob.o(.text) for mal_djob_reg
    m_lay_access.o(.text) refers to m_tb_state.o(.text) for m_tb_state_check_fixed_group_addr
    m_lay_access.o(.text) refers to m_lay_access.o(.constdata) for .constdata
    m_lay_access.o(.text) refers to m_lay_access.o(.conststring) for .conststring
    m_lay_access.o(.text) refers to m_lay_access.o(.data) for .data
    m_lay_access.o(.constdata) refers to m_lay_access.o(.text) for m_lay_access_sent
    m_lay_proxy.o(.text) refers to arch_main_1.o(.text) for assert_err
    m_lay_proxy.o(.text) refers to mesh_tb_buf.o(.text) for mesh_tb_buf_release
    m_lay_proxy.o(.text) refers to m_api.o(.text) for m_api_send_proxy_adv_update_ind
    m_lay_proxy.o(.text) refers to uart.o(.text) for uart_printf
    m_lay_proxy.o(.text) refers to m_bearer.o(.text) for m_bearer_start
    m_lay_proxy.o(.text) refers to mesh_tb_timer.o(.text) for mesh_tb_timer_set
    m_lay_proxy.o(.text) refers to m_tb_mio.o(.text) for m_tb_mio_get_prim_addr
    m_lay_proxy.o(.text) refers to mesh_tb_sec.o(.text) for mesh_tb_sec_aes_start
    m_lay_proxy.o(.text) refers to m_tb_key.o(.text) for m_tb_key_net_get
    m_lay_proxy.o(.text) refers to m_lay_proxy.o(.data) for .data
    m_lay_proxy.o(.text) refers to m_lay_proxy.o(.conststring) for .conststring
    m_lay_proxy.o(.text) refers to m_lay_proxy.o(.constdata) for .constdata
    m_lay_proxy.o(.text) refers to mesh_param_int.o(.bss) for m_stack_param
    m_lay_proxy.o(.text) refers to m_tb_state.o(.text) for m_tb_state_get_gatt_proxy_state
    m_lay_proxy.o(.text) refers to m_bcn.o(i.__ARM_common_ctz) for __ARM_common_ctz
    m_lay_proxy.o(.text) refers to mal.o(.text) for mal_free
    m_lay_proxy.o(.text) refers to m_bcn.o(.text) for m_bcn_proxy_con_start
    m_lay_proxy.o(.constdata) refers to m_lay_proxy.o(.text) for m_lay_proxy_sent
    m_prov.o(.text) refers to mesh_tb_buf.o(.text) for mesh_tb_buf_alloc
    m_prov.o(.text) refers to uart.o(.text) for uart_printf
    m_prov.o(.text) refers to mesh_tb_timer.o(.text) for mesh_tb_timer_set
    m_prov.o(.text) refers to m_prov_adv_trans.o(.text) for m_prov_adv_trans_send
    m_prov.o(.text) refers to m_prov_bearer.o(.text) for m_prov_bearer_gatt_send
    m_prov.o(.text) refers to m_tb_state.o(.text) for m_tb_state_set_attention_state
    m_prov.o(.text) refers to m_prov.o(.data) for .data
    m_prov.o(.text) refers to m_prov.o(.constdata) for .constdata
    m_prov.o(.text) refers to mesh_tb_sec.o(.text) for mesh_tb_sec_k1_start
    m_prov.o(.text) refers to mal_sec.o(.text) for mal_sec_ecdh_secret
    m_prov.o(.text) refers to m_tb_key.o(.text) for m_tb_key_dev_add
    m_prov.o(.text) refers to m_tb_mio.o(.text) for m_tb_mio_set_prim_addr
    m_prov.o(.text) refers to mal.o(.text) for mal_free
    m_prov.o(.text) refers to m_bcn.o(.text) for m_bcn_start_tx_unprov_bcn
    m_prov.o(.text) refers to m_api.o(.data) for p_m_api_cb
    m_prov.o(.text) refers to m_lay_proxy.o(.text) for m_lay_proxy_bearer_adv_ctrl
    m_prov.o(.text) refers to mal_djob.o(.text) for mal_djob_reg
    m_prov.o(.text) refers to m_api.o(.text) for m_api_buf_release
    m_prov.o(.text) refers to m_prov.o(.conststring) for .conststring
    m_prov.o(.text) refers to mesh_param_int.o(.bss) for m_stack_param
    m_prov.o(.constdata) refers to m_prov.o(.text) for m_prov_pdu_invite_handler
    m_prov.o(.constdata) refers to m_prov.o(.conststring) for .conststring
    m_prov_bearer.o(.text) refers to m_prov_adv_trans.o(.text) for m_prov_adv_trans_rx
    m_prov_bearer.o(.text) refers to mesh_tb_buf.o(.text) for mesh_tb_buf_head_release
    m_prov_bearer.o(.text) refers to m_prov.o(.text) for m_prov_pdu_rx
    m_prov_bearer.o(.text) refers to uart.o(.text) for uart_printf
    m_prov_bearer.o(.text) refers to m_bearer.o(.text) for m_bearer_connect_client_cb
    m_prov_bearer.o(.text) refers to mal.o(.text) for mal_malloc
    m_prov_bearer.o(.text) refers to m_prov.o(.data) for p_m_prov_env
    m_prov_bearer.o(.text) refers to m_prov_bearer.o(.constdata) for .constdata
    m_prov_bearer.o(.text) refers to m_bearer.o(.constdata) for m_bearer_api
    m_prov_bearer.o(.text) refers to m_prov_bearer.o(.conststring) for .conststring
    m_prov_bearer.o(.constdata) refers to m_prov_bearer.o(.text) for m_prov_bearer_sent_cb
    m_tb.o(.text) refers to m_tb_key.o(.text) for m_tb_key_init
    m_tb.o(.text) refers to m_tb_mio.o(.text) for m_tb_mio_init
    m_tb.o(.text) refers to m_tb_state.o(.text) for m_tb_state_init
    m_tb.o(.text) refers to m_tb_store_nvds.o(.text) for m_tb_store_init
    m_tb_key.o(.text) refers to mesh_tb_sec.o(.text) for mesh_tb_sec_k1_start
    m_tb_key.o(.text) refers to m_bcn.o(.text) for m_bcn_subnet_update_ind
    m_tb_key.o(.text) refers to mal.o(.text) for mal_malloc
    m_tb_key.o(.text) refers to m_tb_store_nvds.o(.text) for m_tb_store_update_ind
    m_tb_key.o(.text) refers to m_api.o(.text) for m_api_send_key_ind
    m_tb_key.o(.text) refers to m_tb_key.o(.data) for .data
    m_tb_key.o(.text) refers to m_tb_key.o(.constdata) for .constdata
    m_tb_key.o(.text) refers to uart.o(.text) for uart_printf
    m_tb_key.o(.text) refers to m_tb_key.o(.conststring) for .conststring
    m_tb_key.o(.text) refers to m_tb_state.o(.text) for m_tb_state_is_feature_sup
    m_tb_key.o(.text) refers to mesh_tb_timer.o(.text) for mesh_tb_timer_get_cur_time
    m_tb_mio.o(.text) refers to uart.o(.text) for uart_printf
    m_tb_mio.o(.text) refers to m_tb_store_nvds.o(.text) for m_tb_store_update_ind
    m_tb_mio.o(.text) refers to m_tb_mio.o(.data) for .data
    m_tb_mio.o(.text) refers to m_tb_mio.o(.constdata) for .constdata
    m_tb_store_nvds.o(.text) refers to m_tb_key.o(.text) for m_tb_key_app_get
    m_tb_store_nvds.o(.text) refers to uart.o(.text) for uart_printf
    m_tb_store_nvds.o(.text) refers to m_api.o(.text) for m_api_disable
    m_tb_store_nvds.o(.text) refers to mesh_tb_timer.o(.text) for mesh_tb_timer_set
    m_tb_store_nvds.o(.text) refers to m_tb_mio.o(.text) for m_tb_mio_set_prim_addr
    m_tb_store_nvds.o(.text) refers to m_tb_state.o(.text) for m_tb_state_set_default_ttl
    m_tb_store_nvds.o(.text) refers to m_tb_store_nvds.o(.data) for .data
    m_tb_store_nvds.o(.text) refers to m_tb_store_nvds.o(.constdata) for .constdata
    m_tb_store_nvds.o(.text) refers to m_bearer.o(.data) for p_m_bearer_env
    m_tb_store_nvds.o(.text) refers to mal.o(.text) for mal_free
    m_tb_store_nvds.o(.text) refers to m_tb_store_nvds.o(.conststring) for .conststring
    m_tb_state.o(.text) refers to mesh_tb_timer.o(.text) for mesh_tb_timer_set
    m_tb_state.o(.text) refers to m_api.o(.text) for m_api_send_attention_update_ind
    m_tb_state.o(.text) refers to m_tb_store_nvds.o(.text) for m_tb_store_update_ind
    m_tb_state.o(.text) refers to uart.o(.text) for uart_printf
    m_tb_state.o(.text) refers to m_bcn.o(.text) for m_bcn_state_update
    m_tb_state.o(.text) refers to m_lay_proxy.o(.text) for m_lay_proxy_state_set
    m_tb_state.o(.text) refers to m_tb_mio.o(.text) for m_tb_mio_get_prim_addr
    m_tb_state.o(.text) refers to m_tb_state.o(.data) for .data
    m_tb_state.o(.text) refers to mesh_param_int.o(.bss) for m_stack_param
    m_tb_state.o(.text) refers to m_tb_state.o(.constdata) for .constdata
    m_tb_state.o(.text) refers to m_tb_state.o(.conststring) for .conststring
    mm_tb.o(.text) refers to mm_tb_state.o(.text) for mm_tb_state_init
    mm_tb.o(.text) refers to mm_tb_bind.o(.text) for mm_tb_bind_init
    mm_tb.o(.text) refers to mm_tb_replay.o(.text) for mm_tb_replay_init
    mm_tb_bind.o(.text) refers to mm_tb.o(.text) for mm_tb_get_trans_time_ms
    mm_tb_bind.o(.text) refers to mesh_tb_timer.o(.text) for mesh_tb_timer_set
    mm_tb_bind.o(.text) refers to mal_djob.o(.text) for mal_djob_reg
    mm_tb_bind.o(.text) refers to mal.o(.text) for mal_free
    mm_tb_bind.o(.text) refers to mm_tb_state.o(.text) for mm_tb_state_get_env
    mm_tb_bind.o(.text) refers to uart.o(.text) for uart_printf
    mm_tb_bind.o(.text) refers to mm_tb_bind.o(.data) for .data
    mm_tb_bind.o(.text) refers to mm_tb_bind.o(.constdata) for .constdata
    mm_tb_replay.o(.text) refers to mesh_tb_timer.o(.text) for mesh_tb_timer_set
    mm_tb_replay.o(.text) refers to mm_tb_replay.o(.data) for .data
    mm_route.o(.text) refers to m_api.o(.text) for m_api_model_publish
    mm_route.o(.text) refers to uart.o(.text) for uart_printf
    mm_route.o(.text) refers to mesh_tb_buf.o(.text) for mesh_tb_buf_release
    mm_route.o(.text) refers to mal_djob.o(.text) for mal_djob_reg
    mm_route.o(.text) refers to mm_tb_state.o(.text) for mm_tb_state_get_env
    mm_route.o(.text) refers to mm_route.o(.data) for .data
    mm_route.o(.text) refers to mm_route.o(.constdata) for .constdata
    mm_route.o(.constdata) refers to mm_route.o(.text) for mm_route_cb_rx
    mm_tb_state.o(.text) refers to mal.o(.text) for mal_free
    mm_tb_state.o(.text) refers to uart.o(.text) for uart_printf
    mm_tb_state.o(.text) refers to mesh_tb_timer.o(.text) for mesh_tb_timer_set
    mm_tb_state.o(.text) refers to mm_tb_state.o(.data) for .data
    mm_tb_state.o(.text) refers to mm_tb_state.o(.constdata) for .constdata
    mal_adv.o(.text) refers to prf.o(.text) for prf_get_task_from_id
    mal_adv.o(.text) refers to lld_adv_test.o(.text) for lld_adv_test_start
    mal_adv.o(.text) refers to aes.o(.text) for aes_rand
    mal_adv.o(.text) refers to uart.o(.text) for uart_printf
    mal_adv.o(.text) refers to mal.o(.data) for p_mal_env
    mal_adv.o(.text) refers to mal_adv.o(.data) for .data
    mal_adv.o(.constdata) refers to mal_adv.o(.text) for mal_adv_scan_start
    mal_con.o(.text) refers to arch_main_1.o(.text) for assert_param
    mal_con.o(.text) refers to app.o(.text) for appm_get_dev_name
    mal_con.o(.text) refers to mal.o(.data) for p_mal_env
    mal_con.o(.text) refers to mal_con.o(.constdata) for .constdata
    mal_con.o(.constdata) refers to mal_con.o(.text) for mal_con_start
    mal_djob.o(.text) refers to mal.o(.data) for p_mal_env
    mal_sec.o(.text) refers to aes.o(.text) for aes_result_handler
    mal_sec.o(.text) refers to prf.o(.text) for prf_get_task_from_id
    mal_sec.o(.text) refers to aes_cmac.o(.text) for aes_cmac
    mal_sec.o(.text) refers to aes_s1.o(.text) for aes_s1
    mal_sec.o(.text) refers to aes_k1.o(.text) for aes_k1
    mal_sec.o(.text) refers to aes_k2.o(.text) for aes_k2
    mal_sec.o(.text) refers to aes_k3.o(.text) for aes_k3
    mal_sec.o(.text) refers to aes_k4.o(.text) for aes_k4
    mal_sec.o(.text) refers to aes_ccm.o(.text) for aes_ccm
    mal_sec.o(.text) refers to mal.o(.data) for p_mal_env
    mal_task.o(.text) refers to uart.o(.text) for uart_printf
    mal_task.o(.text) refers to mesh.o(.text) for mesh_handler
    mal_task.o(.text) refers to mal_sec.o(.text) for mal_sec_cmp_evt_handler
    mal_task.o(.text) refers to mal_con.o(.text) for mal_con_gapm_cmp_evt_handler
    mal_task.o(.text) refers to mal_timer.o(.text) for mesh_timer_ind_handler
    mal_task.o(.text) refers to mal_adv.o(.text) for mesh_adv_tx_done_handler
    mal_task.o(.text) refers to m_lay_net.o(.text) for mesh_net_tx_done_handler
    mal_task.o(.text) refers to mal_task.o(.conststring) for .conststring
    mal_task.o(.text) refers to mal.o(.data) for p_mal_env
    mal_task.o(.text) refers to mal_task.o(.constdata) for .constdata
    mal_task.o(.constdata) refers to mal_task.o(.text) for ke_msg_default_handler
    mal_task.o(.constdata) refers to mal_sec.o(.text) for gapm_use_enc_block_ind_handler
    mal_task.o(.constdata) refers to mal_task.o(.constdata) for mal_default_state
    mesh_tb_sec.o(.text) refers to mal_sec.o(.text) for mal_sec_aes
    mesh_tb_sec.o(.text) refers to uart.o(.text) for uart_printf
    mesh_tb_sec.o(.text) refers to mesh_tb_sec.o(.data) for .data
    mesh_tb_sec.o(.text) refers to mesh_tb_sec.o(.constdata) for .constdata
    mesh.o(.text) refers to mesh_api.o(.text) for mesh_api_init
    mesh.o(.text) refers to m_api.o(.text) for m_api_init
    mesh.o(.text) refers to mm_api.o(.text) for mm_api_init
    m_bearer_adv.o(.text) refers to mesh_tb_timer.o(.text) for mesh_tb_timer_set
    m_bearer_adv.o(.text) refers to m_bearer.o(.text) for m_bearer_sent
    m_bearer_adv.o(.text) refers to uart.o(.text) for uart_printf
    m_bearer_adv.o(.text) refers to mesh_tb_buf.o(.text) for mesh_tb_buf_head_reserve
    m_bearer_adv.o(.text) refers to m_tb_state.o(.text) for m_tb_state_get_net_tx_params
    m_bearer_adv.o(.text) refers to prf.o(.text) for prf_get_task_from_id
    m_bearer_adv.o(.text) refers to m_bearer.o(.data) for p_m_bearer_env
    m_bearer_adv.o(.text) refers to m_bearer_adv.o(.constdata) for .constdata
    m_bearer_adv.o(.text) refers to mesh_param_int.o(.bss) for m_stack_param
    m_bearer_adv.o(.constdata) refers to m_bearer_adv.o(.text) for m_bearer_adv_started
    m_bearer_gatt.o(.text) refers to m_bearer.o(.text) for m_bearer_started
    m_bearer_gatt.o(.text) refers to uart.o(.text) for uart_printf
    m_bearer_gatt.o(.text) refers to m_bearer.o(.data) for p_m_bearer_env
    m_bearer_gatt.o(.text) refers to m_bearer_gatt.o(.constdata) for .constdata
    m_bearer_gatt.o(.text) refers to mesh_param_int.o(.bss) for m_stack_param
    m_bearer_gatt.o(.text) refers to m_bearer_gatt.o(.conststring) for .conststring
    m_bearer_gatt.o(.constdata) refers to m_bearer_gatt.o(.text) for m_bearer_gatt_started
    m_fnd_confs.o(.text) refers to m_api.o(.text) for m_api_model_rsp_send
    m_fnd_confs.o(.text) refers to uart.o(.text) for uart_printf
    m_fnd_confs.o(.text) refers to m_tb_mio.o(.text) for m_tb_mio_get_subscription_list_size
    m_fnd_confs.o(.text) refers to m_tb_key.o(.text) for m_tb_key_app_get
    m_fnd_confs.o(.text) refers to m_tb_state.o(.text) for m_tb_state_get_hb_pub_params
    m_fnd_confs.o(.text) refers to m_fnd_confs.o(.data) for .data
    m_fnd_confs.o(.text) refers to m_fnd_confs.o(.constdata) for .constdata
    m_fnd_confs.o(.text) refers to mesh_tb_sec.o(.text) for mesh_tb_sec_cmac_start
    m_fnd_confs.o(.text) refers to m_fnd_confs.o(.conststring) for .conststring
    m_fnd_confs.o(.text) refers to m_tb_store_nvds.o(.text) for m_tb_store_get_compo_data
    m_fnd_confs.o(.text) refers to mal.o(.text) for mal_malloc
    m_fnd_confs.o(.text) refers to mesh_tb_buf.o(.text) for mesh_tb_buf_alloc
    m_fnd_confs.o(.text) refers to mal_djob.o(.text) for mal_djob_reg
    m_fnd_confs.o(.text) refers to m_lay_proxy.o(.text) for m_lay_proxy_bearer_adv_ctrl
    m_fnd_confs.o(.constdata) refers to m_fnd_confs.o(.text) for m_fnd_confs_cb_rx
    m_lay_hb.o(.text) refers to m_tb_state.o(.text) for m_tb_state_get_hb_pub_params
    m_lay_hb.o(.text) refers to mesh_tb_buf.o(.text) for mesh_tb_buf_alloc
    m_lay_hb.o(.text) refers to uart.o(.text) for uart_printf
    m_lay_hb.o(.text) refers to m_tb_mio.o(.text) for m_tb_mio_get_prim_addr
    m_lay_hb.o(.text) refers to m_tb_key.o(.text) for m_tb_key_get_iv_seq
    m_lay_hb.o(.text) refers to mesh_tb_timer.o(.text) for mesh_tb_timer_set
    m_lay_hb.o(.text) refers to m_lay_hb.o(.constdata) for .constdata
    m_lay_hb.o(.text) refers to m_lay_hb.o(.data) for .data
    m_lay_hb.o(.constdata) refers to m_lay_hb.o(.text) for m_lay_hb_cb_sent
    m_lay_hb.o(.constdata) refers to m_lay_hb.o(.text) for m_lay_hb_cb_state_updated
    m_lay_ltrans.o(.text) refers to mesh_tb_timer.o(.text) for mesh_tb_timer_clear
    m_lay_ltrans.o(.text) refers to mesh_tb_buf.o(.text) for mesh_tb_buf_release
    m_lay_ltrans.o(.text) refers to uart.o(.text) for uart_printf
    m_lay_ltrans.o(.text) refers to m_tb_key.o(.text) for m_tb_key_get_iv_seq
    m_lay_ltrans.o(.text) refers to m_tb_state.o(.text) for m_tb_state_get_default_ttl
    m_lay_ltrans.o(.text) refers to m_bcn.o(i.__ARM_common_ctz) for __ARM_common_ctz
    m_lay_ltrans.o(.text) refers to m_lay_ltrans.o(.data) for .data
    m_lay_ltrans.o(.text) refers to m_lay_ltrans.o(.constdata) for .constdata
    m_lay_ltrans.o(.text) refers to m_lay_ltrans.o(.conststring) for .conststring
    m_lay_ltrans.o(.text) refers to m_tb_mio.o(.text) for m_tb_mio_is_local_addr
    m_lay_ltrans.o(.constdata) refers to m_lay_ltrans.o(.text) for m_lay_ltrans_send
    m_lay_ltrans.o(.constdata) refers to m_lay_ltrans.o(.text) for m_lay_ltrans_sent
    m_lay_net.o(.text) refers to m_tb_key.o(.text) for m_tb_key_net_lid_from_nid
    m_lay_net.o(.text) refers to mesh_tb_buf.o(.text) for mesh_tb_buf_release
    m_lay_net.o(.text) refers to uart.o(.text) for uart_printf
    m_lay_net.o(.text) refers to m_tb_mio.o(.text) for m_tb_mio_is_local_addr
    m_lay_net.o(.text) refers to m_tb_state.o(.text) for m_tb_state_check_fixed_group_addr
    m_lay_net.o(.text) refers to mesh_tb_sec.o(.text) for mesh_tb_sec_ccm_dec_start
    m_lay_net.o(.text) refers to m_lay_net.o(.data) for .data
    m_lay_net.o(.text) refers to m_lay_net.o(.constdata) for .constdata
    m_lay_net.o(.constdata) refers to m_lay_net.o(.text) for m_lay_net_send
    m_lay_net.o(.constdata) refers to m_lay_net.o(.text) for m_lay_net_sent
    m_lay_utrans.o(.text) refers to uart.o(.text) for uart_printf
    m_lay_utrans.o(.text) refers to mesh_tb_buf.o(.text) for mesh_tb_buf_release
    m_lay_utrans.o(.text) refers to m_tb_key.o(.text) for m_tb_key_app_get
    m_lay_utrans.o(.text) refers to m_tb_mio.o(.text) for m_tb_mio_get_label_uuid
    m_lay_utrans.o(.text) refers to mesh_tb_sec.o(.text) for mesh_tb_sec_ccm_dec_start
    m_lay_utrans.o(.text) refers to mal_djob.o(.text) for mal_djob_reg
    m_lay_utrans.o(.text) refers to m_lay_utrans.o(.data) for .data
    m_lay_utrans.o(.text) refers to m_lay_utrans.o(.constdata) for .constdata
    m_lay_utrans.o(.text) refers to m_lay_utrans.o(.conststring) for .conststring
    m_lay_utrans.o(.constdata) refers to m_lay_utrans.o(.text) for m_lay_utrans_send
    m_lay_utrans.o(.constdata) refers to m_lay_utrans.o(.text) for m_lay_utrans_sent
    m_prov_adv_trans.o(.text) refers to mesh_tb_timer.o(.text) for mesh_tb_timer_set
    m_prov_adv_trans.o(.text) refers to mesh_tb_buf.o(.text) for mesh_tb_buf_acquire
    m_prov_adv_trans.o(.text) refers to uart.o(.text) for uart_printf
    m_prov_adv_trans.o(.text) refers to m_prov_bearer.o(.text) for m_prov_bearer_send
    m_prov_adv_trans.o(.text) refers to m_prov.o(.text) for m_prov_link_closed
    m_prov_adv_trans.o(.text) refers to m_prov.o(.data) for p_m_prov_env
    m_prov_adv_trans.o(.text) refers to m_prov_adv_trans.o(.constdata) for .constdata
    m_prov_adv_trans.o(.text) refers to mal.o(.text) for mal_free
    m_prov_adv_trans.o(.text) refers to m_prov_adv_trans.o(.data) for .data
    aes.o(.text) refers to uart.o(.text) for uart_printf
    aes.o(.text) refers to mal_sec.o(.text) for mal_sec_aes_req
    aes.o(.text) refers to aes.o(.bss) for .bss
    aes.o(.text) refers to aes.o(.constdata) for .constdata
    aes_ccm.o(.text) refers to arch_main_1.o(.text) for assert_param
    aes_ccm.o(.text) refers to aes.o(.text) for aes_start
    aes_ccm.o(.text) refers to uart.o(.text) for uart_printf
    aes_ccm.o(.text) refers to aes_ccm.o(.constdata) for .constdata
    aes_cmac.o(.text) refers to aes.o(.text) for aes_xor_128
    aes_cmac.o(.text) refers to uart.o(.text) for uart_printf
    aes_cmac.o(.text) refers to aes_cmac.o(.constdata) for .constdata
    aes_k1.o(.text) refers to aes_cmac.o(.text) for aes_cmac_continue
    aes_k1.o(.text) refers to aes.o(.text) for aes_alloc
    aes_k2.o(.text) refers to aes_cmac.o(.text) for aes_cmac_continue
    aes_k2.o(.text) refers to arch_main_1.o(.text) for assert_param
    aes_k2.o(.text) refers to aes.o(.text) for aes_alloc
    aes_k2.o(.text) refers to aes_k2.o(.constdata) for .constdata
    aes_k3.o(.text) refers to aes_cmac.o(.text) for aes_cmac_continue
    aes_k3.o(.text) refers to aes.o(.text) for aes_alloc
    aes_k3.o(.text) refers to uart.o(.text) for uart_printf
    aes_k3.o(.text) refers to aes_k3.o(.constdata) for .constdata
    aes_k4.o(.text) refers to aes_cmac.o(.text) for aes_cmac_continue
    aes_k4.o(.text) refers to aes.o(.text) for aes_alloc
    aes_k4.o(.text) refers to uart.o(.text) for uart_printf
    aes_k4.o(.text) refers to aes_k4.o(.constdata) for .constdata
    aes_s1.o(.text) refers to aes.o(.text) for aes_alloc
    aes_s1.o(.text) refers to uart.o(.text) for uart_printf
    aes_s1.o(.text) refers to aes_cmac.o(.text) for aes_cmac_start
    aes_s1.o(.text) refers to aes_s1.o(.constdata) for .constdata
    aes_s1.o(.text) refers to aes_cmac.o(.constdata) for aes_cmac_zero
    vsprintf.o(.text) refers (Special) to _printf_a.o(.ARM.Collect$$_printf_percent$$00000006) for _printf_a
    vsprintf.o(.text) refers (Special) to _printf_c.o(.ARM.Collect$$_printf_percent$$00000013) for _printf_c
    vsprintf.o(.text) refers (Special) to _printf_charcount.o(.text) for _printf_charcount
    vsprintf.o(.text) refers (Special) to _printf_d.o(.ARM.Collect$$_printf_percent$$00000009) for _printf_d
    vsprintf.o(.text) refers (Special) to _printf_e.o(.ARM.Collect$$_printf_percent$$00000004) for _printf_e
    vsprintf.o(.text) refers (Special) to _printf_f.o(.ARM.Collect$$_printf_percent$$00000003) for _printf_f
    vsprintf.o(.text) refers (Special) to printf1.o(x$fpl$printf1) for _printf_fp_dec
    vsprintf.o(.text) refers (Special) to printf2.o(x$fpl$printf2) for _printf_fp_hex
    vsprintf.o(.text) refers (Special) to _printf_g.o(.ARM.Collect$$_printf_percent$$00000005) for _printf_g
    vsprintf.o(.text) refers (Special) to _printf_i.o(.ARM.Collect$$_printf_percent$$00000008) for _printf_i
    vsprintf.o(.text) refers (Special) to _printf_dec.o(.text) for _printf_int_dec
    vsprintf.o(.text) refers (Special) to _printf_l.o(.ARM.Collect$$_printf_percent$$00000012) for _printf_l
    vsprintf.o(.text) refers (Special) to _printf_lc.o(.ARM.Collect$$_printf_percent$$00000015) for _printf_lc
    vsprintf.o(.text) refers (Special) to _printf_ll.o(.ARM.Collect$$_printf_percent$$00000007) for _printf_ll
    vsprintf.o(.text) refers (Special) to _printf_lld.o(.ARM.Collect$$_printf_percent$$0000000E) for _printf_lld
    vsprintf.o(.text) refers (Special) to _printf_lli.o(.ARM.Collect$$_printf_percent$$0000000D) for _printf_lli
    vsprintf.o(.text) refers (Special) to _printf_llo.o(.ARM.Collect$$_printf_percent$$00000010) for _printf_llo
    vsprintf.o(.text) refers (Special) to _printf_llu.o(.ARM.Collect$$_printf_percent$$0000000F) for _printf_llu
    vsprintf.o(.text) refers (Special) to _printf_llx.o(.ARM.Collect$$_printf_percent$$00000011) for _printf_llx
    vsprintf.o(.text) refers (Special) to _printf_longlong_dec.o(.text) for _printf_longlong_dec
    vsprintf.o(.text) refers (Special) to _printf_hex_int_ll_ptr.o(.text) for _printf_longlong_hex
    vsprintf.o(.text) refers (Special) to _printf_oct_int_ll.o(.text) for _printf_longlong_oct
    vsprintf.o(.text) refers (Special) to _printf_ls.o(.ARM.Collect$$_printf_percent$$00000016) for _printf_ls
    vsprintf.o(.text) refers (Special) to _printf_n.o(.ARM.Collect$$_printf_percent$$00000001) for _printf_n
    vsprintf.o(.text) refers (Special) to _printf_o.o(.ARM.Collect$$_printf_percent$$0000000B) for _printf_o
    vsprintf.o(.text) refers (Special) to _printf_p.o(.ARM.Collect$$_printf_percent$$00000002) for _printf_p
    vsprintf.o(.text) refers (Special) to _printf_percent.o(.ARM.Collect$$_printf_percent$$00000000) for _printf_percent
    vsprintf.o(.text) refers (Special) to _printf_pad.o(.text) for _printf_post_padding
    vsprintf.o(.text) refers (Special) to _printf_s.o(.ARM.Collect$$_printf_percent$$00000014) for _printf_s
    vsprintf.o(.text) refers (Special) to _printf_str.o(.text) for _printf_str
    vsprintf.o(.text) refers (Special) to _printf_truncate.o(.text) for _printf_truncate_signed
    vsprintf.o(.text) refers (Special) to _printf_u.o(.ARM.Collect$$_printf_percent$$0000000A) for _printf_u
    vsprintf.o(.text) refers (Special) to _printf_wctomb.o(.text) for _printf_wctomb
    vsprintf.o(.text) refers (Special) to _printf_x.o(.ARM.Collect$$_printf_percent$$0000000C) for _printf_x
    vsprintf.o(.text) refers to _printf_char_common.o(.text) for _printf_char_common
    vsprintf.o(.text) refers to _sputc.o(.text) for _sputc
    vsnprintf.o(.text) refers (Special) to _printf_a.o(.ARM.Collect$$_printf_percent$$00000006) for _printf_a
    vsnprintf.o(.text) refers (Special) to _printf_c.o(.ARM.Collect$$_printf_percent$$00000013) for _printf_c
    vsnprintf.o(.text) refers (Special) to _printf_charcount.o(.text) for _printf_charcount
    vsnprintf.o(.text) refers (Special) to _printf_d.o(.ARM.Collect$$_printf_percent$$00000009) for _printf_d
    vsnprintf.o(.text) refers (Special) to _printf_e.o(.ARM.Collect$$_printf_percent$$00000004) for _printf_e
    vsnprintf.o(.text) refers (Special) to _printf_f.o(.ARM.Collect$$_printf_percent$$00000003) for _printf_f
    vsnprintf.o(.text) refers (Special) to printf1.o(x$fpl$printf1) for _printf_fp_dec
    vsnprintf.o(.text) refers (Special) to printf2.o(x$fpl$printf2) for _printf_fp_hex
    vsnprintf.o(.text) refers (Special) to _printf_g.o(.ARM.Collect$$_printf_percent$$00000005) for _printf_g
    vsnprintf.o(.text) refers (Special) to _printf_i.o(.ARM.Collect$$_printf_percent$$00000008) for _printf_i
    vsnprintf.o(.text) refers (Special) to _printf_dec.o(.text) for _printf_int_dec
    vsnprintf.o(.text) refers (Special) to _printf_l.o(.ARM.Collect$$_printf_percent$$00000012) for _printf_l
    vsnprintf.o(.text) refers (Special) to _printf_lc.o(.ARM.Collect$$_printf_percent$$00000015) for _printf_lc
    vsnprintf.o(.text) refers (Special) to _printf_ll.o(.ARM.Collect$$_printf_percent$$00000007) for _printf_ll
    vsnprintf.o(.text) refers (Special) to _printf_lld.o(.ARM.Collect$$_printf_percent$$0000000E) for _printf_lld
    vsnprintf.o(.text) refers (Special) to _printf_lli.o(.ARM.Collect$$_printf_percent$$0000000D) for _printf_lli
    vsnprintf.o(.text) refers (Special) to _printf_llo.o(.ARM.Collect$$_printf_percent$$00000010) for _printf_llo
    vsnprintf.o(.text) refers (Special) to _printf_llu.o(.ARM.Collect$$_printf_percent$$0000000F) for _printf_llu
    vsnprintf.o(.text) refers (Special) to _printf_llx.o(.ARM.Collect$$_printf_percent$$00000011) for _printf_llx
    vsnprintf.o(.text) refers (Special) to _printf_longlong_dec.o(.text) for _printf_longlong_dec
    vsnprintf.o(.text) refers (Special) to _printf_hex_int_ll_ptr.o(.text) for _printf_longlong_hex
    vsnprintf.o(.text) refers (Special) to _printf_oct_int_ll.o(.text) for _printf_longlong_oct
    vsnprintf.o(.text) refers (Special) to _printf_ls.o(.ARM.Collect$$_printf_percent$$00000016) for _printf_ls
    vsnprintf.o(.text) refers (Special) to _printf_n.o(.ARM.Collect$$_printf_percent$$00000001) for _printf_n
    vsnprintf.o(.text) refers (Special) to _printf_o.o(.ARM.Collect$$_printf_percent$$0000000B) for _printf_o
    vsnprintf.o(.text) refers (Special) to _printf_p.o(.ARM.Collect$$_printf_percent$$00000002) for _printf_p
    vsnprintf.o(.text) refers (Special) to _printf_percent.o(.ARM.Collect$$_printf_percent$$00000000) for _printf_percent
    vsnprintf.o(.text) refers (Special) to _printf_pad.o(.text) for _printf_post_padding
    vsnprintf.o(.text) refers (Special) to _printf_s.o(.ARM.Collect$$_printf_percent$$00000014) for _printf_s
    vsnprintf.o(.text) refers (Special) to _printf_str.o(.text) for _printf_str
    vsnprintf.o(.text) refers (Special) to _printf_truncate.o(.text) for _printf_truncate_signed
    vsnprintf.o(.text) refers (Special) to _printf_u.o(.ARM.Collect$$_printf_percent$$0000000A) for _printf_u
    vsnprintf.o(.text) refers (Special) to _printf_wctomb.o(.text) for _printf_wctomb
    vsnprintf.o(.text) refers (Special) to _printf_x.o(.ARM.Collect$$_printf_percent$$0000000C) for _printf_x
    vsnprintf.o(.text) refers to _printf_char_common.o(.text) for _printf_char_common
    vsnprintf.o(.text) refers to _sputc.o(.text) for _sputc
    vsnprintf.o(.text) refers to _snputc.o(.text) for _snputc
    __2sprintf.o(.text) refers to _printf_char_common.o(.text) for _printf_char_common
    __2sprintf.o(.text) refers to _sputc.o(.text) for _sputc
    noretval__2sprintf.o(.text) refers to _printf_char_common.o(.text) for _printf_char_common
    noretval__2sprintf.o(.text) refers to _sputc.o(.text) for _sputc
    __printf.o(.text) refers to _printf_percent.o(.ARM.Collect$$_printf_percent$$00000000) for _printf_percent
    _printf_str.o(.text) refers (Special) to _printf_char.o(.text) for _printf_cs_common
    _printf_str.o(.text) refers (Weak) to _printf_pad.o(.text) for _printf_pre_padding
    _printf_str.o(.text) refers (Weak) to _printf_pad.o(.text) for _printf_post_padding
    _printf_hex_ll.o(.text) refers to _printf_intcommon.o(.text) for _printf_int_common
    _printf_hex_ll.o(.text) refers to _printf_hex_ll.o(.constdata) for .constdata
    _printf_hex_int.o(.text) refers (Weak) to _printf_truncate.o(.text) for _printf_truncate_unsigned
    _printf_hex_int.o(.text) refers to _printf_intcommon.o(.text) for _printf_int_common
    _printf_hex_int.o(.text) refers to _printf_hex_int.o(.constdata) for .constdata
    _printf_hex_int_ll.o(.text) refers to _printf_intcommon.o(.text) for _printf_int_common
    _printf_hex_int_ll.o(.text) refers (Weak) to _printf_truncate.o(.text) for _printf_truncate_unsigned
    _printf_hex_int_ll.o(.text) refers to _printf_hex_int_ll.o(.constdata) for .constdata
    _printf_hex_ptr.o(.text) refers to _printf_intcommon.o(.text) for _printf_int_common
    _printf_hex_ptr.o(.text) refers to _printf_hex_ptr.o(.constdata) for .constdata
    _printf_hex_int_ptr.o(.text) refers to _printf_intcommon.o(.text) for _printf_int_common
    _printf_hex_int_ptr.o(.text) refers (Weak) to _printf_truncate.o(.text) for _printf_truncate_unsigned
    _printf_hex_int_ptr.o(.text) refers to _printf_hex_int_ptr.o(.constdata) for .constdata
    _printf_hex_ll_ptr.o(.text) refers to _printf_intcommon.o(.text) for _printf_int_common
    _printf_hex_ll_ptr.o(.text) refers to _printf_hex_ll_ptr.o(.constdata) for .constdata
    _printf_hex_int_ll_ptr.o(.text) refers to _printf_intcommon.o(.text) for _printf_int_common
    _printf_hex_int_ll_ptr.o(.text) refers (Weak) to _printf_truncate.o(.text) for _printf_truncate_unsigned
    _printf_hex_int_ll_ptr.o(.text) refers to _printf_hex_int_ll_ptr.o(.constdata) for .constdata
    __printf_flags.o(.text) refers to _printf_percent.o(.ARM.Collect$$_printf_percent$$00000000) for _printf_percent
    __printf_flags.o(.text) refers to __printf_flags.o(.constdata) for .constdata
    __printf_ss.o(.text) refers to _printf_percent.o(.ARM.Collect$$_printf_percent$$00000000) for _printf_percent
    __printf_flags_ss.o(.text) refers to _printf_percent.o(.ARM.Collect$$_printf_percent$$00000000) for _printf_percent
    __printf_flags_ss.o(.text) refers to __printf_flags_ss.o(.constdata) for .constdata
    __printf_wp.o(.text) refers to __printf_wp.o(i._is_digit) for _is_digit
    __printf_wp.o(.text) refers to _printf_percent.o(.ARM.Collect$$_printf_percent$$00000000) for _printf_percent
    __printf_flags_wp.o(.text) refers to __printf_wp.o(i._is_digit) for _is_digit
    __printf_flags_wp.o(.text) refers to _printf_percent.o(.ARM.Collect$$_printf_percent$$00000000) for _printf_percent
    __printf_flags_wp.o(.text) refers to __printf_flags_wp.o(.constdata) for .constdata
    __printf_ss_wp.o(.text) refers to __printf_wp.o(i._is_digit) for _is_digit
    __printf_ss_wp.o(.text) refers to _printf_percent.o(.ARM.Collect$$_printf_percent$$00000000) for _printf_percent
    __printf_flags_ss_wp.o(.text) refers to __printf_wp.o(i._is_digit) for _is_digit
    __printf_flags_ss_wp.o(.text) refers to _printf_percent.o(.ARM.Collect$$_printf_percent$$00000000) for _printf_percent
    __printf_flags_ss_wp.o(.text) refers to __printf_flags_ss_wp.o(.constdata) for .constdata
    _printf_s.o(.ARM.Collect$$_printf_percent$$00000014) refers (Weak) to _printf_char.o(.text) for _printf_string
    _printf_x.o(.ARM.Collect$$_printf_percent$$0000000C) refers (Weak) to _printf_hex_int_ll_ptr.o(.text) for _printf_int_hex
    _printf_percent.o(.ARM.Collect$$_printf_percent$$00000000) refers (Special) to _printf_percent_end.o(.ARM.Collect$$_printf_percent$$00000017) for _printf_percent_end
    __main.o(!!!main) refers to __rtentry.o(.ARM.Collect$$rtentry$$00000000) for __rt_entry
    d2f.o(x$fpl$d2f) refers (Special) to usenofp.o(x$fpl$usenofp) for __I$use$fp
    d2f.o(x$fpl$d2f) refers to fretinf.o(x$fpl$fretinf) for __fpl_fretinf
    d2f.o(x$fpl$d2f) refers to dnaninf.o(x$fpl$dnaninf) for __fpl_dnaninf
    daddsub_clz.o(x$fpl$dadd) refers (Special) to usenofp.o(x$fpl$usenofp) for __I$use$fp
    daddsub_clz.o(x$fpl$dadd) refers to daddsub_clz.o(x$fpl$dsub) for _dsub1
    daddsub_clz.o(x$fpl$dadd) refers to dretinf.o(x$fpl$dretinf) for __fpl_dretinf
    daddsub_clz.o(x$fpl$dadd) refers to dnaninf.o(x$fpl$dnaninf) for __fpl_dnaninf
    daddsub_clz.o(x$fpl$drsb) refers (Special) to usenofp.o(x$fpl$usenofp) for __I$use$fp
    daddsub_clz.o(x$fpl$drsb) refers to daddsub_clz.o(x$fpl$dadd) for _dadd1
    daddsub_clz.o(x$fpl$drsb) refers to daddsub_clz.o(x$fpl$dsub) for _dsub1
    daddsub_clz.o(x$fpl$dsub) refers (Special) to usenofp.o(x$fpl$usenofp) for __I$use$fp
    daddsub_clz.o(x$fpl$dsub) refers to daddsub_clz.o(x$fpl$dadd) for _dadd1
    daddsub_clz.o(x$fpl$dsub) refers to dnaninf.o(x$fpl$dnaninf) for __fpl_dnaninf
    ddiv.o(x$fpl$drdiv) refers (Special) to usenofp.o(x$fpl$usenofp) for __I$use$fp
    ddiv.o(x$fpl$drdiv) refers to ddiv.o(x$fpl$ddiv) for ddiv_entry
    ddiv.o(x$fpl$ddiv) refers (Special) to usenofp.o(x$fpl$usenofp) for __I$use$fp
    ddiv.o(x$fpl$ddiv) refers to dretinf.o(x$fpl$dretinf) for __fpl_dretinf
    ddiv.o(x$fpl$ddiv) refers to dnaninf.o(x$fpl$dnaninf) for __fpl_dnaninf
    dfixu.o(x$fpl$dfixu) refers (Special) to usenofp.o(x$fpl$usenofp) for __I$use$fp
    dfixu.o(x$fpl$dfixu) refers to dnaninf.o(x$fpl$dnaninf) for __fpl_dnaninf
    dfixu.o(x$fpl$dfixur) refers (Special) to usenofp.o(x$fpl$usenofp) for __I$use$fp
    dfixu.o(x$fpl$dfixur) refers to dnaninf.o(x$fpl$dnaninf) for __fpl_dnaninf
    dflt_clz.o(x$fpl$dfltu) refers (Special) to usenofp.o(x$fpl$usenofp) for __I$use$fp
    dflt_clz.o(x$fpl$dflt) refers (Special) to usenofp.o(x$fpl$usenofp) for __I$use$fp
    dflt_clz.o(x$fpl$dfltn) refers (Special) to usenofp.o(x$fpl$usenofp) for __I$use$fp
    dmul.o(x$fpl$dmul) refers (Special) to usenofp.o(x$fpl$usenofp) for __I$use$fp
    dmul.o(x$fpl$dmul) refers to dretinf.o(x$fpl$dretinf) for __fpl_dretinf
    dmul.o(x$fpl$dmul) refers to dnaninf.o(x$fpl$dnaninf) for __fpl_dnaninf
    f2d.o(x$fpl$f2d) refers (Special) to usenofp.o(x$fpl$usenofp) for __I$use$fp
    f2d.o(x$fpl$f2d) refers to fnaninf.o(x$fpl$fnaninf) for __fpl_fnaninf
    f2d.o(x$fpl$f2d) refers to dretinf.o(x$fpl$dretinf) for __fpl_dretinf
    faddsub_clz.o(x$fpl$fadd) refers (Special) to usenofp.o(x$fpl$usenofp) for __I$use$fp
    faddsub_clz.o(x$fpl$fadd) refers to faddsub_clz.o(x$fpl$fsub) for _fsub1
    faddsub_clz.o(x$fpl$fadd) refers to fretinf.o(x$fpl$fretinf) for __fpl_fretinf
    faddsub_clz.o(x$fpl$fadd) refers to fnaninf.o(x$fpl$fnaninf) for __fpl_fnaninf
    faddsub_clz.o(x$fpl$frsb) refers (Special) to usenofp.o(x$fpl$usenofp) for __I$use$fp
    faddsub_clz.o(x$fpl$frsb) refers to faddsub_clz.o(x$fpl$fadd) for _fadd1
    faddsub_clz.o(x$fpl$frsb) refers to faddsub_clz.o(x$fpl$fsub) for _fsub1
    faddsub_clz.o(x$fpl$fsub) refers (Special) to usenofp.o(x$fpl$usenofp) for __I$use$fp
    faddsub_clz.o(x$fpl$fsub) refers to faddsub_clz.o(x$fpl$fadd) for _fadd1
    faddsub_clz.o(x$fpl$fsub) refers to fnaninf.o(x$fpl$fnaninf) for __fpl_fnaninf
    fdiv.o(x$fpl$frdiv) refers (Special) to usenofp.o(x$fpl$usenofp) for __I$use$fp
    fdiv.o(x$fpl$frdiv) refers to fdiv.o(x$fpl$fdiv) for _fdiv1
    fdiv.o(x$fpl$fdiv) refers (Special) to usenofp.o(x$fpl$usenofp) for __I$use$fp
    fdiv.o(x$fpl$fdiv) refers to fretinf.o(x$fpl$fretinf) for __fpl_fretinf
    fdiv.o(x$fpl$fdiv) refers to fnaninf.o(x$fpl$fnaninf) for __fpl_fnaninf
    fflt_clz.o(x$fpl$ffltu) refers (Special) to usenofp.o(x$fpl$usenofp) for __I$use$fp
    fflt_clz.o(x$fpl$fflt) refers (Special) to usenofp.o(x$fpl$usenofp) for __I$use$fp
    fflt_clz.o(x$fpl$ffltn) refers (Special) to usenofp.o(x$fpl$usenofp) for __I$use$fp
    fmul.o(x$fpl$fmul) refers (Special) to usenofp.o(x$fpl$usenofp) for __I$use$fp
    fmul.o(x$fpl$fmul) refers to fretinf.o(x$fpl$fretinf) for __fpl_fretinf
    fmul.o(x$fpl$fmul) refers to fnaninf.o(x$fpl$fnaninf) for __fpl_fnaninf
    scalbn.o(x$fpl$scalbn) refers (Special) to usenofp.o(x$fpl$usenofp) for __I$use$fp
    scalbn.o(x$fpl$scalbn) refers to dcheck1.o(x$fpl$dcheck1) for __fpl_dcheck_NaN1
    scalbnf.o(x$fpl$scalbnf) refers (Special) to usenofp.o(x$fpl$usenofp) for __I$use$fp
    scalbnf.o(x$fpl$scalbnf) refers to fcheck1.o(x$fpl$fcheck1) for __fpl_fcheck_NaN1
    ceil.o(i.__softfp_ceil) refers (Special) to usenofp.o(x$fpl$usenofp) for __I$use$fp
    ceil.o(i.__softfp_ceil) refers to ceil.o(i.ceil) for ceil
    ceil.o(i.ceil) refers (Special) to usenofp.o(x$fpl$usenofp) for __I$use$fp
    ceil.o(i.ceil) refers to daddsub_clz.o(x$fpl$dadd) for __aeabi_dadd
    ceil.o(i.ceil) refers to drleqf.o(x$fpl$drleqf) for __aeabi_cdrcmple
    ceil.o(i.ceil) refers to daddsub_clz.o(x$fpl$drsb) for __aeabi_drsub
    round.o(i.round) refers (Special) to usenofp.o(x$fpl$usenofp) for __I$use$fp
    round.o(i.round) refers to drnd.o(x$fpl$drnd) for _drnd
    round.o(i.round) refers to daddsub_clz.o(x$fpl$drsb) for __aeabi_drsub
    round.o(i.round) refers to dleqf.o(x$fpl$dleqf) for __aeabi_cdcmple
    round.o(i.round) refers to drleqf.o(x$fpl$drleqf) for __aeabi_cdrcmple
    round.o(i.round) refers to daddsub_clz.o(x$fpl$dsub) for __aeabi_dsub
    round.o(i.round) refers to daddsub_clz.o(x$fpl$dadd) for __aeabi_dadd
    __rtentry.o(.ARM.Collect$$rtentry$$00000000) refers (Special) to __rtentry2.o(.ARM.Collect$$rtentry$$0000000A) for __rt_entry_li
    __rtentry.o(.ARM.Collect$$rtentry$$00000000) refers (Special) to __rtentry2.o(.ARM.Collect$$rtentry$$0000000D) for __rt_entry_main
    __rtentry.o(.ARM.Collect$$rtentry$$00000000) refers (Special) to __rtentry2.o(.ARM.Collect$$rtentry$$0000000C) for __rt_entry_postli_1
    __rtentry.o(.ARM.Collect$$rtentry$$00000000) refers (Special) to __rtentry2.o(.ARM.Collect$$rtentry$$00000009) for __rt_entry_postsh_1
    __rtentry.o(.ARM.Collect$$rtentry$$00000000) refers (Special) to __rtentry2.o(.ARM.Collect$$rtentry$$00000002) for __rt_entry_presh_1
    __rtentry.o(.ARM.Collect$$rtentry$$00000000) refers (Special) to __rtentry4.o(.ARM.Collect$$rtentry$$00000004) for __rt_entry_sh
    _printf_intcommon.o(.text) refers (Weak) to _printf_pad.o(.text) for _printf_pre_padding
    _printf_intcommon.o(.text) refers (Weak) to _printf_pad.o(.text) for _printf_pre_padding
    _printf_intcommon.o(.text) refers (Weak) to _printf_pad.o(.text) for _printf_post_padding
    _printf_dec.o(.text) refers (Weak) to _printf_truncate.o(.text) for _printf_truncate_signed
    _printf_dec.o(.text) refers (Weak) to _printf_truncate.o(.text) for _printf_truncate_unsigned
    _printf_dec.o(.text) refers to rtudiv10.o(.text) for __rt_udiv10
    _printf_dec.o(.text) refers to _printf_intcommon.o(.text) for _printf_int_common
    _printf_char_common.o(.text) refers to __printf_flags_ss_wp.o(.text) for __printf
    _printf_char.o(.text) refers (Weak) to _printf_str.o(.text) for _printf_str
    _printf_wctomb.o(.text) refers (Special) to _printf_wchar.o(.text) for _printf_lcs_common
    _printf_wctomb.o(.text) refers to _wcrtomb.o(.text) for _wcrtomb
    _printf_wctomb.o(.text) refers (Weak) to _printf_pad.o(.text) for _printf_pre_padding
    _printf_wctomb.o(.text) refers (Weak) to _printf_pad.o(.text) for _printf_post_padding
    _printf_wctomb.o(.text) refers to _printf_wctomb.o(.constdata) for .constdata
    _printf_wctomb.o(.constdata) refers (Special) to _printf_wchar.o(.text) for _printf_lcs_common
    _printf_longlong_dec.o(.text) refers to lludiv10.o(.text) for _ll_udiv10
    _printf_longlong_dec.o(.text) refers to _printf_intcommon.o(.text) for _printf_int_common
    _printf_oct_ll.o(.text) refers to _printf_intcommon.o(.text) for _printf_int_common
    _printf_oct_int.o(.text) refers (Weak) to _printf_truncate.o(.text) for _printf_truncate_unsigned
    _printf_oct_int.o(.text) refers to _printf_intcommon.o(.text) for _printf_int_common
    _printf_oct_int_ll.o(.text) refers to _printf_intcommon.o(.text) for _printf_int_common
    _printf_oct_int_ll.o(.text) refers (Weak) to _printf_truncate.o(.text) for _printf_truncate_unsigned
    _printf_c.o(.ARM.Collect$$_printf_percent$$00000013) refers (Weak) to _printf_char.o(.text) for _printf_char
    _printf_n.o(.ARM.Collect$$_printf_percent$$00000001) refers (Weak) to _printf_charcount.o(.text) for _printf_charcount
    _printf_p.o(.ARM.Collect$$_printf_percent$$00000002) refers (Weak) to _printf_hex_int_ll_ptr.o(.text) for _printf_hex_ptr
    _printf_o.o(.ARM.Collect$$_printf_percent$$0000000B) refers (Weak) to _printf_oct_int_ll.o(.text) for _printf_int_oct
    _printf_i.o(.ARM.Collect$$_printf_percent$$00000008) refers (Weak) to _printf_dec.o(.text) for _printf_int_dec
    _printf_d.o(.ARM.Collect$$_printf_percent$$00000009) refers (Weak) to _printf_dec.o(.text) for _printf_int_dec
    _printf_u.o(.ARM.Collect$$_printf_percent$$0000000A) refers (Weak) to _printf_dec.o(.text) for _printf_int_dec
    _printf_f.o(.ARM.Collect$$_printf_percent$$00000003) refers (Weak) to printf1.o(x$fpl$printf1) for _printf_fp_dec
    _printf_e.o(.ARM.Collect$$_printf_percent$$00000004) refers (Weak) to printf1.o(x$fpl$printf1) for _printf_fp_dec
    _printf_g.o(.ARM.Collect$$_printf_percent$$00000005) refers (Weak) to printf1.o(x$fpl$printf1) for _printf_fp_dec
    _printf_a.o(.ARM.Collect$$_printf_percent$$00000006) refers (Weak) to printf2.o(x$fpl$printf2) for _printf_fp_hex
    _printf_lli.o(.ARM.Collect$$_printf_percent$$0000000D) refers (Special) to _printf_ll.o(.ARM.Collect$$_printf_percent$$00000007) for _printf_ll
    _printf_lli.o(.ARM.Collect$$_printf_percent$$0000000D) refers (Weak) to _printf_longlong_dec.o(.text) for _printf_longlong_dec
    _printf_lld.o(.ARM.Collect$$_printf_percent$$0000000E) refers (Special) to _printf_ll.o(.ARM.Collect$$_printf_percent$$00000007) for _printf_ll
    _printf_lld.o(.ARM.Collect$$_printf_percent$$0000000E) refers (Weak) to _printf_longlong_dec.o(.text) for _printf_longlong_dec
    _printf_llu.o(.ARM.Collect$$_printf_percent$$0000000F) refers (Special) to _printf_ll.o(.ARM.Collect$$_printf_percent$$00000007) for _printf_ll
    _printf_llu.o(.ARM.Collect$$_printf_percent$$0000000F) refers (Weak) to _printf_longlong_dec.o(.text) for _printf_longlong_dec
    _printf_lc.o(.ARM.Collect$$_printf_percent$$00000015) refers (Special) to _printf_l.o(.ARM.Collect$$_printf_percent$$00000012) for _printf_l
    _printf_lc.o(.ARM.Collect$$_printf_percent$$00000015) refers (Weak) to _printf_wchar.o(.text) for _printf_wchar
    _printf_ls.o(.ARM.Collect$$_printf_percent$$00000016) refers (Special) to _printf_l.o(.ARM.Collect$$_printf_percent$$00000012) for _printf_l
    _printf_ls.o(.ARM.Collect$$_printf_percent$$00000016) refers (Weak) to _printf_wchar.o(.text) for _printf_wstring
    _printf_llo.o(.ARM.Collect$$_printf_percent$$00000010) refers (Special) to _printf_ll.o(.ARM.Collect$$_printf_percent$$00000007) for _printf_ll
    _printf_llo.o(.ARM.Collect$$_printf_percent$$00000010) refers (Weak) to _printf_oct_int_ll.o(.text) for _printf_ll_oct
    _printf_llx.o(.ARM.Collect$$_printf_percent$$00000011) refers (Special) to _printf_ll.o(.ARM.Collect$$_printf_percent$$00000007) for _printf_ll
    _printf_llx.o(.ARM.Collect$$_printf_percent$$00000011) refers (Weak) to _printf_hex_int_ll_ptr.o(.text) for _printf_ll_hex
    dcheck1.o(x$fpl$dcheck1) refers (Special) to usenofp.o(x$fpl$usenofp) for __I$use$fp
    dcheck1.o(x$fpl$dcheck1) refers to retnan.o(x$fpl$retnan) for __fpl_return_NaN
    dleqf.o(x$fpl$dleqf) refers (Special) to usenofp.o(x$fpl$usenofp) for __I$use$fp
    dleqf.o(x$fpl$dleqf) refers to dnaninf.o(x$fpl$dnaninf) for __fpl_dnaninf
    dleqf.o(x$fpl$dleqf) refers to dcmpi.o(x$fpl$dcmpinf) for __fpl_dcmp_Inf
    dnaninf.o(x$fpl$dnaninf) refers (Special) to usenofp.o(x$fpl$usenofp) for __I$use$fp
    dretinf.o(x$fpl$dretinf) refers (Special) to usenofp.o(x$fpl$usenofp) for __I$use$fp
    drleqf.o(x$fpl$drleqf) refers (Special) to usenofp.o(x$fpl$usenofp) for __I$use$fp
    drleqf.o(x$fpl$drleqf) refers to dleqf.o(x$fpl$dleqf) for __fpl_dcmple_InfNaN
    drnd.o(x$fpl$drnd) refers (Special) to usenofp.o(x$fpl$usenofp) for __I$use$fp
    drnd.o(x$fpl$drnd) refers to dnaninf.o(x$fpl$dnaninf) for __fpl_dnaninf
    fcheck1.o(x$fpl$fcheck1) refers (Special) to usenofp.o(x$fpl$usenofp) for __I$use$fp
    fcheck1.o(x$fpl$fcheck1) refers to retnan.o(x$fpl$retnan) for __fpl_return_NaN
    fnaninf.o(x$fpl$fnaninf) refers (Special) to usenofp.o(x$fpl$usenofp) for __I$use$fp
    fretinf.o(x$fpl$fretinf) refers (Special) to usenofp.o(x$fpl$usenofp) for __I$use$fp
    printf1.o(x$fpl$printf1) refers to _printf_fp_dec.o(.text) for _printf_fp_dec_real
    printf2.o(x$fpl$printf2) refers to _printf_fp_hex.o(.text) for _printf_fp_hex_real
    printf2b.o(x$fpl$printf2) refers to _printf_fp_hex.o(.text) for _printf_fp_hex_real
    __rtentry2.o(.ARM.Collect$$rtentry$$00000008) refers to boardinit2.o(.text) for _platform_post_stackheap_init
    __rtentry2.o(.ARM.Collect$$rtentry$$0000000A) refers to libinit.o(.ARM.Collect$$libinit$$00000000) for __rt_lib_init
    __rtentry2.o(.ARM.Collect$$rtentry$$0000000B) refers to boardinit3.o(.text) for _platform_post_lib_init
    __rtentry2.o(.ARM.Collect$$rtentry$$0000000D) refers to exit.o(.text) for exit
    __rtentry2.o(.ARM.Collect$$rtentry$$0000000D) refers to arch_main_1.o(.text) for main
    __rtentry2.o(.ARM.exidx) refers to __rtentry2.o(.ARM.Collect$$rtentry$$00000001) for .ARM.Collect$$rtentry$$00000001
    __rtentry2.o(.ARM.exidx) refers to __rtentry2.o(.ARM.Collect$$rtentry$$00000008) for .ARM.Collect$$rtentry$$00000008
    __rtentry2.o(.ARM.exidx) refers to __rtentry2.o(.ARM.Collect$$rtentry$$0000000A) for .ARM.Collect$$rtentry$$0000000A
    __rtentry2.o(.ARM.exidx) refers to __rtentry2.o(.ARM.Collect$$rtentry$$0000000B) for .ARM.Collect$$rtentry$$0000000B
    __rtentry2.o(.ARM.exidx) refers to __rtentry2.o(.ARM.Collect$$rtentry$$0000000D) for .ARM.Collect$$rtentry$$0000000D
    __rtentry4.o(.ARM.Collect$$rtentry$$00000004) refers to sys_stackheap_outer.o(.text) for __user_setup_stackheap
    __rtentry4.o(.ARM.exidx) refers to __rtentry4.o(.ARM.Collect$$rtentry$$00000004) for .ARM.Collect$$rtentry$$00000004
    _printf_fp_dec.o(.text) refers (Special) to usenofp.o(x$fpl$usenofp) for __I$use$fp
    _printf_fp_dec.o(.text) refers (Special) to lc_numeric_c.o(locale$$code) for _get_lc_numeric
    _printf_fp_dec.o(.text) refers to istatus.o(x$fpl$ieeestatus) for __ieee_status
    _printf_fp_dec.o(.text) refers to bigflt0.o(.text) for _btod_etento
    _printf_fp_dec.o(.text) refers to btod.o(CL$$btod_d2e) for _btod_d2e
    _printf_fp_dec.o(.text) refers to btod.o(CL$$btod_ediv) for _btod_ediv
    _printf_fp_dec.o(.text) refers to btod.o(CL$$btod_emul) for _btod_emul
    _printf_fp_dec.o(.text) refers to lludiv10.o(.text) for _ll_udiv10
    _printf_fp_dec.o(.text) refers to fpclassify.o(i.__ARM_fpclassify) for __ARM_fpclassify
    _printf_fp_dec.o(.text) refers to _printf_fp_infnan.o(.text) for _printf_fp_infnan
    _printf_fp_dec.o(.text) refers to rtudiv10.o(.text) for __rt_udiv10
    _printf_fp_dec.o(.text) refers (Weak) to _printf_pad.o(.text) for _printf_pre_padding
    _printf_fp_dec.o(.text) refers (Weak) to _printf_pad.o(.text) for _printf_pre_padding
    _printf_fp_dec.o(.text) refers to rt_locale_intlibspace.o(.text) for __rt_locale
    _printf_fp_dec.o(.text) refers (Weak) to _printf_pad.o(.text) for _printf_post_padding
    _printf_fp_hex.o(.text) refers (Special) to usenofp.o(x$fpl$usenofp) for __I$use$fp
    _printf_fp_hex.o(.text) refers to fpclassify.o(i.__ARM_fpclassify) for __ARM_fpclassify
    _printf_fp_hex.o(.text) refers to _printf_fp_infnan.o(.text) for _printf_fp_infnan
    _printf_fp_hex.o(.text) refers to istatus.o(x$fpl$ieeestatus) for __ieee_status
    _printf_fp_hex.o(.text) refers (Weak) to _printf_pad.o(.text) for _printf_pre_padding
    _printf_fp_hex.o(.text) refers (Weak) to _printf_pad.o(.text) for _printf_pre_padding
    _printf_fp_hex.o(.text) refers (Weak) to _printf_pad.o(.text) for _printf_post_padding
    _printf_fp_hex.o(.text) refers to _printf_fp_hex.o(.constdata) for .constdata
    _printf_fp_hex.o(.constdata) refers (Special) to usenofp.o(x$fpl$usenofp) for __I$use$fp
    _printf_wchar.o(.text) refers (Weak) to _printf_wctomb.o(.text) for _printf_wctomb
    _wcrtomb.o(.text) refers to rt_ctype_table.o(.text) for __rt_ctype_table
    dcmpi.o(x$fpl$dcmpinf) refers (Special) to usenofp.o(x$fpl$usenofp) for __I$use$fp
    retnan.o(x$fpl$retnan) refers (Special) to usenofp.o(x$fpl$usenofp) for __I$use$fp
    retnan.o(x$fpl$retnan) refers to trapv.o(x$fpl$trapveneer) for __fpl_cmpreturn
    sys_stackheap_outer.o(.text) refers to libspace.o(.text) for __user_perproc_libspace
    sys_stackheap_outer.o(.text) refers to boot_handlers.o(SYS_BOOT) for __user_initial_stackheap
    rt_ctype_table.o(.text) refers to rt_locale_intlibspace.o(.text) for __rt_locale
    rt_ctype_table.o(.text) refers to lc_ctype_c.o(locale$$code) for _get_lc_ctype
    rt_locale.o(.text) refers to rt_locale.o(.bss) for __rt_locale_data
    rt_locale_intlibspace.o(.text) refers to libspace.o(.bss) for __libspace_start
    _printf_fp_infnan.o(.text) refers (Weak) to _printf_pad.o(.text) for _printf_pre_padding
    _printf_fp_infnan.o(.text) refers (Weak) to _printf_pad.o(.text) for _printf_post_padding
    bigflt0.o(.text) refers (Special) to usenofp.o(x$fpl$usenofp) for __I$use$fp
    bigflt0.o(.text) refers to btod.o(CL$$btod_emul) for _btod_emul
    bigflt0.o(.text) refers to btod.o(CL$$btod_ediv) for _btod_ediv
    bigflt0.o(.text) refers to bigflt0.o(.constdata) for .constdata
    bigflt0.o(.constdata) refers (Special) to usenofp.o(x$fpl$usenofp) for __I$use$fp
    btod.o(CL$$btod_d2e) refers (Special) to usenofp.o(x$fpl$usenofp) for __I$use$fp
    btod.o(CL$$btod_d2e) refers to btod.o(CL$$btod_d2e_norm_op1) for _d2e_norm_op1
    btod.o(CL$$btod_d2e_norm_op1) refers (Special) to usenofp.o(x$fpl$usenofp) for __I$use$fp
    btod.o(CL$$btod_d2e_norm_op1) refers to btod.o(CL$$btod_d2e_denorm_low) for _d2e_denorm_low
    btod.o(CL$$btod_d2e_denorm_low) refers (Special) to usenofp.o(x$fpl$usenofp) for __I$use$fp
    btod.o(CL$$btod_emul) refers (Special) to usenofp.o(x$fpl$usenofp) for __I$use$fp
    btod.o(CL$$btod_emul) refers to btod.o(CL$$btod_mult_common) for __btod_mult_common
    btod.o(CL$$btod_emul) refers to btod.o(CL$$btod_e2e) for _e2e
    btod.o(CL$$btod_ediv) refers (Special) to usenofp.o(x$fpl$usenofp) for __I$use$fp
    btod.o(CL$$btod_ediv) refers to btod.o(CL$$btod_div_common) for __btod_div_common
    btod.o(CL$$btod_ediv) refers to btod.o(CL$$btod_e2e) for _e2e
    btod.o(CL$$btod_emuld) refers (Special) to usenofp.o(x$fpl$usenofp) for __I$use$fp
    btod.o(CL$$btod_emuld) refers to btod.o(CL$$btod_mult_common) for __btod_mult_common
    btod.o(CL$$btod_emuld) refers to btod.o(CL$$btod_e2d) for _e2d
    btod.o(CL$$btod_edivd) refers (Special) to usenofp.o(x$fpl$usenofp) for __I$use$fp
    btod.o(CL$$btod_edivd) refers to btod.o(CL$$btod_div_common) for __btod_div_common
    btod.o(CL$$btod_edivd) refers to btod.o(CL$$btod_e2d) for _e2d
    btod.o(CL$$btod_e2e) refers (Special) to usenofp.o(x$fpl$usenofp) for __I$use$fp
    btod.o(CL$$btod_e2d) refers (Special) to usenofp.o(x$fpl$usenofp) for __I$use$fp
    btod.o(CL$$btod_e2d) refers to btod.o(CL$$btod_e2e) for _e2e
    btod.o(CL$$btod_mult_common) refers (Special) to usenofp.o(x$fpl$usenofp) for __I$use$fp
    btod.o(CL$$btod_div_common) refers (Special) to usenofp.o(x$fpl$usenofp) for __I$use$fp
    lc_numeric_c.o(locale$$data) refers (Special) to libinit2.o(.ARM.Collect$$libinit$$00000016) for __rt_lib_init_lc_numeric_2
    lc_numeric_c.o(locale$$code) refers (Special) to libinit2.o(.ARM.Collect$$libinit$$00000016) for __rt_lib_init_lc_numeric_2
    lc_numeric_c.o(locale$$code) refers to strcmp.o(.text) for strcmp
    lc_numeric_c.o(locale$$code) refers to lc_numeric_c.o(locale$$data) for __lcnum_c_name
    exit.o(.text) refers to rtexit.o(.ARM.Collect$$rtexit$$00000000) for __rt_exit
    libinit.o(.ARM.Collect$$libinit$$00000000) refers (Special) to libinit2.o(.ARM.Collect$$libinit$$0000002E) for __rt_lib_init_alloca_1
    libinit.o(.ARM.Collect$$libinit$$00000000) refers (Special) to libinit2.o(.ARM.Collect$$libinit$$0000002C) for __rt_lib_init_argv_1
    libinit.o(.ARM.Collect$$libinit$$00000000) refers (Special) to libinit2.o(.ARM.Collect$$libinit$$0000001B) for __rt_lib_init_atexit_1
    libinit.o(.ARM.Collect$$libinit$$00000000) refers (Special) to libinit2.o(.ARM.Collect$$libinit$$00000021) for __rt_lib_init_clock_1
    libinit.o(.ARM.Collect$$libinit$$00000000) refers (Special) to libinit2.o(.ARM.Collect$$libinit$$00000032) for __rt_lib_init_cpp_1
    libinit.o(.ARM.Collect$$libinit$$00000000) refers (Special) to libinit2.o(.ARM.Collect$$libinit$$00000030) for __rt_lib_init_exceptions_1
    libinit.o(.ARM.Collect$$libinit$$00000000) refers (Special) to libinit2.o(.ARM.Collect$$libinit$$00000002) for __rt_lib_init_fp_1
    libinit.o(.ARM.Collect$$libinit$$00000000) refers (Special) to libinit2.o(.ARM.Collect$$libinit$$0000001F) for __rt_lib_init_fp_trap_1
    libinit.o(.ARM.Collect$$libinit$$00000000) refers (Special) to libinit2.o(.ARM.Collect$$libinit$$00000023) for __rt_lib_init_getenv_1
    libinit.o(.ARM.Collect$$libinit$$00000000) refers (Special) to libinit2.o(.ARM.Collect$$libinit$$0000000A) for __rt_lib_init_heap_1
    libinit.o(.ARM.Collect$$libinit$$00000000) refers (Special) to libinit2.o(.ARM.Collect$$libinit$$00000011) for __rt_lib_init_lc_collate_1
    libinit.o(.ARM.Collect$$libinit$$00000000) refers (Special) to libinit2.o(.ARM.Collect$$libinit$$00000013) for __rt_lib_init_lc_ctype_1
    libinit.o(.ARM.Collect$$libinit$$00000000) refers (Special) to libinit2.o(.ARM.Collect$$libinit$$00000015) for __rt_lib_init_lc_monetary_1
    libinit.o(.ARM.Collect$$libinit$$00000000) refers (Special) to libinit2.o(.ARM.Collect$$libinit$$00000017) for __rt_lib_init_lc_numeric_1
    libinit.o(.ARM.Collect$$libinit$$00000000) refers (Special) to libinit2.o(.ARM.Collect$$libinit$$00000019) for __rt_lib_init_lc_time_1
    libinit.o(.ARM.Collect$$libinit$$00000000) refers (Special) to libinit2.o(.ARM.Collect$$libinit$$00000004) for __rt_lib_init_preinit_1
    libinit.o(.ARM.Collect$$libinit$$00000000) refers (Special) to libinit2.o(.ARM.Collect$$libinit$$0000000E) for __rt_lib_init_rand_1
    libinit.o(.ARM.Collect$$libinit$$00000000) refers (Special) to libinit2.o(.ARM.Collect$$libinit$$00000033) for __rt_lib_init_return
    libinit.o(.ARM.Collect$$libinit$$00000000) refers (Special) to libinit2.o(.ARM.Collect$$libinit$$0000001D) for __rt_lib_init_signal_1
    libinit.o(.ARM.Collect$$libinit$$00000000) refers (Special) to libinit2.o(.ARM.Collect$$libinit$$00000025) for __rt_lib_init_stdio_1
    libinit.o(.ARM.Collect$$libinit$$00000000) refers (Special) to libinit2.o(.ARM.Collect$$libinit$$0000000C) for __rt_lib_init_user_alloc_1
    istatus.o(x$fpl$ieeestatus) refers (Special) to usenofp.o(x$fpl$usenofp) for __I$use$fp
    trapv.o(x$fpl$trapveneer) refers (Special) to usenofp.o(x$fpl$usenofp) for __I$use$fp
    fpclassify.o(i.__ARM_fpclassify) refers (Special) to usenofp.o(x$fpl$usenofp) for __I$use$fp
    libspace.o(.text) refers to libspace.o(.bss) for __libspace_start
    rtexit.o(.ARM.Collect$$rtexit$$00000000) refers (Special) to rtexit2.o(.ARM.Collect$$rtexit$$00000004) for __rt_exit_exit
    rtexit.o(.ARM.Collect$$rtexit$$00000000) refers (Special) to rtexit2.o(.ARM.Collect$$rtexit$$00000003) for __rt_exit_ls
    rtexit.o(.ARM.Collect$$rtexit$$00000000) refers (Special) to rtexit2.o(.ARM.Collect$$rtexit$$00000002) for __rt_exit_prels_1
    rtexit.o(.ARM.exidx) refers (Special) to rtexit2.o(.ARM.Collect$$rtexit$$00000004) for __rt_exit_exit
    rtexit.o(.ARM.exidx) refers (Special) to rtexit2.o(.ARM.Collect$$rtexit$$00000003) for __rt_exit_ls
    rtexit.o(.ARM.exidx) refers (Special) to rtexit2.o(.ARM.Collect$$rtexit$$00000002) for __rt_exit_prels_1
    rtexit.o(.ARM.exidx) refers to rtexit.o(.ARM.Collect$$rtexit$$00000000) for .ARM.Collect$$rtexit$$00000000
    lc_ctype_c.o(locale$$data) refers (Special) to libinit2.o(.ARM.Collect$$libinit$$00000012) for __rt_lib_init_lc_ctype_2
    lc_ctype_c.o(locale$$code) refers (Special) to libinit2.o(.ARM.Collect$$libinit$$00000012) for __rt_lib_init_lc_ctype_2
    lc_ctype_c.o(locale$$code) refers to strcmp.o(.text) for strcmp
    lc_ctype_c.o(locale$$code) refers to lc_ctype_c.o(locale$$data) for __lcctype_c_name
    libinit2.o(.ARM.Collect$$libinit$$00000001) refers to fpinit.o(x$fpl$fpinit) for _fp_init
    libinit2.o(.ARM.Collect$$libinit$$0000000F) refers (Weak) to rt_locale_intlibspace.o(.text) for __rt_locale
    libinit2.o(.ARM.Collect$$libinit$$00000010) refers to libinit2.o(.ARM.Collect$$libinit$$0000000F) for .ARM.Collect$$libinit$$0000000F
    libinit2.o(.ARM.Collect$$libinit$$00000012) refers to libinit2.o(.ARM.Collect$$libinit$$0000000F) for .ARM.Collect$$libinit$$0000000F
    libinit2.o(.ARM.Collect$$libinit$$00000012) refers (Weak) to lc_ctype_c.o(locale$$code) for _get_lc_ctype
    libinit2.o(.ARM.Collect$$libinit$$00000014) refers to libinit2.o(.ARM.Collect$$libinit$$0000000F) for .ARM.Collect$$libinit$$0000000F
    libinit2.o(.ARM.Collect$$libinit$$00000016) refers to libinit2.o(.ARM.Collect$$libinit$$0000000F) for .ARM.Collect$$libinit$$0000000F
    libinit2.o(.ARM.Collect$$libinit$$00000016) refers (Weak) to lc_numeric_c.o(locale$$code) for _get_lc_numeric
    libinit2.o(.ARM.Collect$$libinit$$00000018) refers to libinit2.o(.ARM.Collect$$libinit$$0000000F) for .ARM.Collect$$libinit$$0000000F
    libinit2.o(.ARM.Collect$$libinit$$00000026) refers to argv_veneer.o(.emb_text) for __ARM_argv_veneer
    libinit2.o(.ARM.Collect$$libinit$$00000027) refers to argv_veneer.o(.emb_text) for __ARM_argv_veneer
    rtexit2.o(.ARM.Collect$$rtexit$$00000003) refers to libshutdown.o(.ARM.Collect$$libshutdown$$00000000) for __rt_lib_shutdown
    rtexit2.o(.ARM.Collect$$rtexit$$00000004) refers to sys_exit.o(.text) for _sys_exit
    rtexit2.o(.ARM.exidx) refers to rtexit2.o(.ARM.Collect$$rtexit$$00000001) for .ARM.Collect$$rtexit$$00000001
    rtexit2.o(.ARM.exidx) refers to rtexit2.o(.ARM.Collect$$rtexit$$00000003) for .ARM.Collect$$rtexit$$00000003
    rtexit2.o(.ARM.exidx) refers to rtexit2.o(.ARM.Collect$$rtexit$$00000004) for .ARM.Collect$$rtexit$$00000004
    argv_veneer.o(.emb_text) refers to no_argv.o(.text) for __ARM_get_argv
    sys_exit.o(.text) refers (Special) to use_no_semi.o(.text) for __I$use$semihosting
    sys_exit.o(.text) refers (Special) to indicate_semi.o(.text) for __semihosting_library_function
    _get_argv_nomalloc.o(.text) refers (Special) to hrguard.o(.text) for __heap_region$guard
    _get_argv_nomalloc.o(.text) refers to defsig_rtmem_outer.o(.text) for __rt_SIGRTMEM
    _get_argv_nomalloc.o(.text) refers to sys_command.o(.text) for _sys_command_string
    libshutdown.o(.ARM.Collect$$libshutdown$$00000000) refers (Special) to libshutdown2.o(.ARM.Collect$$libshutdown$$00000002) for __rt_lib_shutdown_cpp_1
    libshutdown.o(.ARM.Collect$$libshutdown$$00000000) refers (Special) to libshutdown2.o(.ARM.Collect$$libshutdown$$00000007) for __rt_lib_shutdown_fp_trap_1
    libshutdown.o(.ARM.Collect$$libshutdown$$00000000) refers (Special) to libshutdown2.o(.ARM.Collect$$libshutdown$$0000000F) for __rt_lib_shutdown_heap_1
    libshutdown.o(.ARM.Collect$$libshutdown$$00000000) refers (Special) to libshutdown2.o(.ARM.Collect$$libshutdown$$00000010) for __rt_lib_shutdown_return
    libshutdown.o(.ARM.Collect$$libshutdown$$00000000) refers (Special) to libshutdown2.o(.ARM.Collect$$libshutdown$$0000000A) for __rt_lib_shutdown_signal_1
    libshutdown.o(.ARM.Collect$$libshutdown$$00000000) refers (Special) to libshutdown2.o(.ARM.Collect$$libshutdown$$00000004) for __rt_lib_shutdown_stdio_1
    libshutdown.o(.ARM.Collect$$libshutdown$$00000000) refers (Special) to libshutdown2.o(.ARM.Collect$$libshutdown$$0000000C) for __rt_lib_shutdown_user_alloc_1
    sys_command.o(.text) refers (Special) to use_no_semi.o(.text) for __I$use$semihosting
    sys_command.o(.text) refers (Special) to indicate_semi.o(.text) for __semihosting_library_function
    defsig_rtmem_outer.o(.text) refers to defsig_rtmem_inner.o(.text) for __rt_SIGRTMEM_inner
    defsig_rtmem_outer.o(.text) refers to defsig_exit.o(.text) for __sig_exit
    defsig_rtmem_formal.o(.text) refers to rt_raise.o(.text) for __rt_raise
    rt_raise.o(.text) refers to __raise.o(.text) for __raise
    rt_raise.o(.text) refers to sys_exit.o(.text) for _sys_exit
    defsig_exit.o(.text) refers to sys_exit.o(.text) for _sys_exit
    defsig_rtmem_inner.o(.text) refers to defsig_general.o(.text) for __default_signal_display
    __raise.o(.text) refers to defsig.o(CL$$defsig) for __default_signal_handler
    defsig_general.o(.text) refers to sys_wrch.o(.text) for _ttywrch
    sys_wrch.o(.text) refers (Special) to use_no_semi.o(.text) for __I$use$semihosting
    sys_wrch.o(.text) refers (Special) to indicate_semi.o(.text) for __semihosting_library_function
    defsig.o(CL$$defsig) refers to defsig_rtmem_inner.o(.text) for __rt_SIGRTMEM_inner
    defsig_abrt_inner.o(.text) refers to defsig_general.o(.text) for __default_signal_display
    defsig_fpe_inner.o(.text) refers to defsig_general.o(.text) for __default_signal_display
    defsig_rtred_inner.o(.text) refers to defsig_general.o(.text) for __default_signal_display
    defsig_stak_inner.o(.text) refers to defsig_general.o(.text) for __default_signal_display
    defsig_pvfn_inner.o(.text) refers to defsig_general.o(.text) for __default_signal_display
    defsig_cppl_inner.o(.text) refers to defsig_general.o(.text) for __default_signal_display
    defsig_segv_inner.o(.text) refers to defsig_general.o(.text) for __default_signal_display
    defsig_other.o(.text) refers to defsig_general.o(.text) for __default_signal_display


==============================================================================

Removing Unused input sections from the image.

    Removing arch_main_1.o(.data), (16 bytes).
    Removing uart.o(.bss), (256 bytes).
    Removing uart.o(.data), (4 bytes).
    Removing app_light_ali_server.o(.data), (1 bytes).
    Removing app_light_ali_server.o(.data), (4 bytes).
    Removing app_light_ali_server.o(.data), (4 bytes).
    Removing app_light_ali_server.o(.data), (6 bytes).
    Removing app_light_ali_server.o(.data), (1 bytes).
    Removing app_light_ali_server.o(.data), (1 bytes).
    Removing app_light_ali_server.o(.data), (1 bytes).
    Removing cli_krhino.o(.text), (3252 bytes).
    Removing cli_krhino.o(.bss), (128 bytes).
    Removing cli_krhino.o(.constdata), (132 bytes).
    Removing cli_krhino.o(.conststring), (205 bytes).
    Removing cli_krhino.o(.data), (12 bytes).
    Removing led.o(.bss), (24 bytes).
    Removing led.o(.bss), (24 bytes).
    Removing led.o(.data), (1 bytes).
    Removing led.o(.data), (2 bytes).
    Removing led.o(.data), (1 bytes).
    Removing led.o(.data), (1 bytes).
    Removing soft_aes.o(.text), (4080 bytes).
    Removing soft_aes.o(.constdata), (9032 bytes).
    Removing app_ais.o(.constdata), (25 bytes).
    Removing lld_adv_test.o(.data), (4 bytes).
    Removing arch_main_1.o(i.__ARM_common_enable_irq), (16 bytes).
    Removing arch_main_1.o(i.__ARM_common_enable_fiq), (16 bytes).
    Removing arch_main_1.o(i.__ARM_common_disable_irq), (20 bytes).
    Removing arch_main_1.o(i.__ARM_common_disable_fiq), (20 bytes).
    Removing app_dis.o(i.__ARM_common_switch8), (24 bytes).
    Removing mesh_tb_buf.o(i.__ARM_clz), (8 bytes).

31 unused section(s) (total 17321 bytes) removed from the image.

==============================================================================

Adding Veneers to the image

    Adding AT veneer (8 bytes, Long) for call to 'Undefined_Exception' from boot_vectors.o(SYS_BOOT).
    Adding AT veneer (8 bytes, Long) for call to 'SoftwareInterrupt_Exception' from boot_vectors.o(SYS_BOOT).
    Adding AT veneer (8 bytes, Long) for call to 'PrefetchAbort_Exception' from boot_vectors.o(SYS_BOOT).
    Adding AT veneer (8 bytes, Long) for call to 'DataAbort_Exception' from boot_vectors.o(SYS_BOOT).
    Adding AT veneer (8 bytes, Long) for call to 'Reserved_Exception' from boot_vectors.o(SYS_BOOT).
    Adding AT veneer (8 bytes, Inline) for call to '_printf_hex_ptr' from _printf_p.o(.ARM.Collect$$_printf_percent$$00000002).
    Adding AT veneer (8 bytes, Inline) for call to '_printf_int_dec' from _printf_i.o(.ARM.Collect$$_printf_percent$$00000008).
    Adding AT veneer (8 bytes, Inline) for call to '_printf_charcount' from _printf_n.o(.ARM.Collect$$_printf_percent$$00000001).
    Adding AT veneer (8 bytes, Inline) for call to '_printf_char' from _printf_c.o(.ARM.Collect$$_printf_percent$$00000013).
    Adding AT veneer (8 bytes, Inline) for call to '_printf_longlong_dec' from _printf_lli.o(.ARM.Collect$$_printf_percent$$0000000D).
    Adding AT veneer (8 bytes, Inline) for call to '_printf_int_oct' from _printf_o.o(.ARM.Collect$$_printf_percent$$0000000B).
    Adding AT veneer (8 bytes, Inline) for call to '_printf_fp_hex_real' from printf2.o(x$fpl$printf2).
    Adding AT veneer (8 bytes, Inline) for call to '_printf_wchar' from _printf_lc.o(.ARM.Collect$$_printf_percent$$00000015).
    Adding AT veneer (8 bytes, Long) for call to '_printf_int_hex' from _printf_x.o(.ARM.Collect$$_printf_percent$$0000000C).
    Adding AT veneer (8 bytes, Long) for call to '_printf_ll_oct' from _printf_llo.o(.ARM.Collect$$_printf_percent$$00000010).
    Adding AT veneer (8 bytes, Long) for call to '_printf_ll_hex' from _printf_llx.o(.ARM.Collect$$_printf_percent$$00000011).
    Adding AT veneer (8 bytes, Long) for call to '_printf_string' from _printf_s.o(.ARM.Collect$$_printf_percent$$00000014).
    Adding AT veneer (8 bytes, Long) for call to '_printf_wstring' from _printf_ls.o(.ARM.Collect$$_printf_percent$$00000016).
    Adding AT veneer (8 bytes, Long) for call to '_printf_fp_dec_real' from printf1.o(x$fpl$printf1).

19 Veneer(s) (total 152 bytes) added to the image.

==============================================================================

Image Symbol Table

    Local Symbols

    Symbol Name                              Value     Ov Type        Size  Object(Section)

    ../clib/angel/boardlib.s                 0x00000000   Number         0  boardinit3.o ABSOLUTE
    ../clib/angel/boardlib.s                 0x00000000   Number         0  boardshut.o ABSOLUTE
    ../clib/angel/boardlib.s                 0x00000000   Number         0  boardinit1.o ABSOLUTE
    ../clib/angel/boardlib.s                 0x00000000   Number         0  boardinit2.o ABSOLUTE
    ../clib/angel/dczerorl2.s                0x00000000   Number         0  __dczerorl2.o ABSOLUTE
    ../clib/angel/handlers.s                 0x00000000   Number         0  __scatter_zi.o ABSOLUTE
    ../clib/angel/kernel.s                   0x00000000   Number         0  rtexit.o ABSOLUTE
    ../clib/angel/kernel.s                   0x00000000   Number         0  __rtentry2.o ABSOLUTE
    ../clib/angel/kernel.s                   0x00000000   Number         0  __rtentry4.o ABSOLUTE
    ../clib/angel/kernel.s                   0x00000000   Number         0  __rtentry.o ABSOLUTE
    ../clib/angel/kernel.s                   0x00000000   Number         0  rtexit2.o ABSOLUTE
    ../clib/angel/rt.s                       0x00000000   Number         0  rt_ctype_table.o ABSOLUTE
    ../clib/angel/rt.s                       0x00000000   Number         0  rt_raise.o ABSOLUTE
    ../clib/angel/rt.s                       0x00000000   Number         0  rt_locale.o ABSOLUTE
    ../clib/angel/rt.s                       0x00000000   Number         0  rt_locale_intlibspace.o ABSOLUTE
    ../clib/angel/scatter.s                  0x00000000   Number         0  __scatter.o ABSOLUTE
    ../clib/angel/startup.s                  0x00000000   Number         0  __main.o ABSOLUTE
    ../clib/angel/sys.s                      0x00000000   Number         0  sys_stackheap_outer.o ABSOLUTE
    ../clib/angel/sys.s                      0x00000000   Number         0  libspace.o ABSOLUTE
    ../clib/angel/sys.s                      0x00000000   Number         0  indicate_semi.o ABSOLUTE
    ../clib/angel/sys.s                      0x00000000   Number         0  use_no_semi.o ABSOLUTE
    ../clib/angel/sysapp.c                   0x00000000   Number         0  sys_wrch.o ABSOLUTE
    ../clib/angel/sysapp.c                   0x00000000   Number         0  sys_exit.o ABSOLUTE
    ../clib/angel/sysapp.c                   0x00000000   Number         0  sys_command.o ABSOLUTE
    ../clib/armsys.c                         0x00000000   Number         0  _get_argv_nomalloc.o ABSOLUTE
    ../clib/armsys.c                         0x00000000   Number         0  argv_veneer.o ABSOLUTE
    ../clib/armsys.c                         0x00000000   Number         0  no_argv.o ABSOLUTE
    ../clib/armsys.c                         0x00000000   Number         0  argv_veneer.o ABSOLUTE
    ../clib/bigflt.c                         0x00000000   Number         0  bigflt0.o ABSOLUTE
    ../clib/btod.s                           0x00000000   Number         0  btod.o ABSOLUTE
    ../clib/division.s                       0x00000000   Number         0  rtudiv10.o ABSOLUTE
    ../clib/heapalloc.c                      0x00000000   Number         0  hrguard.o ABSOLUTE
    ../clib/libinit.s                        0x00000000   Number         0  libinit.o ABSOLUTE
    ../clib/libinit.s                        0x00000000   Number         0  libinit2.o ABSOLUTE
    ../clib/libinit.s                        0x00000000   Number         0  libshutdown2.o ABSOLUTE
    ../clib/libinit.s                        0x00000000   Number         0  libshutdown.o ABSOLUTE
    ../clib/locale.c                         0x00000000   Number         0  _wcrtomb.o ABSOLUTE
    ../clib/locale.s                         0x00000000   Number         0  lc_numeric_c.o ABSOLUTE
    ../clib/locale.s                         0x00000000   Number         0  lc_ctype_c.o ABSOLUTE
    ../clib/longlong.s                       0x00000000   Number         0  lludiv10.o ABSOLUTE
    ../clib/longlong.s                       0x00000000   Number         0  llmul.o ABSOLUTE
    ../clib/memcpset.s                       0x00000000   Number         0  rt_memmove_w.o ABSOLUTE
    ../clib/memcpset.s                       0x00000000   Number         0  strcmp.o ABSOLUTE
    ../clib/memcpset.s                       0x00000000   Number         0  strncpy.o ABSOLUTE
    ../clib/misc.s                           0x00000000   Number         0  printf_stubs.o ABSOLUTE
    ../clib/printf.c                         0x00000000   Number         0  _printf_pad.o ABSOLUTE
    ../clib/printf.c                         0x00000000   Number         0  _printf_truncate.o ABSOLUTE
    ../clib/printf.c                         0x00000000   Number         0  __printf_flags_ss_wp.o ABSOLUTE
    ../clib/printf.c                         0x00000000   Number         0  __printf.o ABSOLUTE
    ../clib/printf.c                         0x00000000   Number         0  _printf_hex_ptr.o ABSOLUTE
    ../clib/printf.c                         0x00000000   Number         0  _printf_intcommon.o ABSOLUTE
    ../clib/printf.c                         0x00000000   Number         0  _printf_hex_int_ptr.o ABSOLUTE
    ../clib/printf.c                         0x00000000   Number         0  _printf_fp_infnan.o ABSOLUTE
    ../clib/printf.c                         0x00000000   Number         0  __printf_ss_wp.o ABSOLUTE
    ../clib/printf.c                         0x00000000   Number         0  _printf_hex_ll_ptr.o ABSOLUTE
    ../clib/printf.c                         0x00000000   Number         0  _printf_dec.o ABSOLUTE
    ../clib/printf.c                         0x00000000   Number         0  _printf_charcount.o ABSOLUTE
    ../clib/printf.c                         0x00000000   Number         0  __printf_wp.o ABSOLUTE
    ../clib/printf.c                         0x00000000   Number         0  __printf_nopercent.o ABSOLUTE
    ../clib/printf.c                         0x00000000   Number         0  _printf_str.o ABSOLUTE
    ../clib/printf.c                         0x00000000   Number         0  __printf_flags_ss.o ABSOLUTE
    ../clib/printf.c                         0x00000000   Number         0  _printf_fp_hex.o ABSOLUTE
    ../clib/printf.c                         0x00000000   Number         0  _printf_wchar.o ABSOLUTE
    ../clib/printf.c                         0x00000000   Number         0  _printf_char_common.o ABSOLUTE
    ../clib/printf.c                         0x00000000   Number         0  _sputc.o ABSOLUTE
    ../clib/printf.c                         0x00000000   Number         0  _printf_hex_ll.o ABSOLUTE
    ../clib/printf.c                         0x00000000   Number         0  _printf_oct_int.o ABSOLUTE
    ../clib/printf.c                         0x00000000   Number         0  _printf_fp_dec.o ABSOLUTE
    ../clib/printf.c                         0x00000000   Number         0  _printf_oct_ll.o ABSOLUTE
    ../clib/printf.c                         0x00000000   Number         0  _snputc.o ABSOLUTE
    ../clib/printf.c                         0x00000000   Number         0  noretval__2sprintf.o ABSOLUTE
    ../clib/printf.c                         0x00000000   Number         0  _printf_char.o ABSOLUTE
    ../clib/printf.c                         0x00000000   Number         0  __printf_ss.o ABSOLUTE
    ../clib/printf.c                         0x00000000   Number         0  __printf_flags_wp.o ABSOLUTE
    ../clib/printf.c                         0x00000000   Number         0  _printf_wctomb.o ABSOLUTE
    ../clib/printf.c                         0x00000000   Number         0  __printf_flags.o ABSOLUTE
    ../clib/printf.c                         0x00000000   Number         0  _printf_hex_int_ll_ptr.o ABSOLUTE
    ../clib/printf.c                         0x00000000   Number         0  _printf_hex_int_ll.o ABSOLUTE
    ../clib/printf.c                         0x00000000   Number         0  _printf_longlong_dec.o ABSOLUTE
    ../clib/printf.c                         0x00000000   Number         0  _printf_oct_int_ll.o ABSOLUTE
    ../clib/printf.c                         0x00000000   Number         0  __2sprintf.o ABSOLUTE
    ../clib/printf.c                         0x00000000   Number         0  vsnprintf.o ABSOLUTE
    ../clib/printf.c                         0x00000000   Number         0  vsprintf.o ABSOLUTE
    ../clib/printf.c                         0x00000000   Number         0  _printf_hex_int.o ABSOLUTE
    ../clib/printf_percent.s                 0x00000000   Number         0  _printf_c.o ABSOLUTE
    ../clib/printf_percent.s                 0x00000000   Number         0  _printf_x.o ABSOLUTE
    ../clib/printf_percent.s                 0x00000000   Number         0  _printf_s.o ABSOLUTE
    ../clib/printf_percent.s                 0x00000000   Number         0  _printf_n.o ABSOLUTE
    ../clib/printf_percent.s                 0x00000000   Number         0  _printf_p.o ABSOLUTE
    ../clib/printf_percent.s                 0x00000000   Number         0  _printf_o.o ABSOLUTE
    ../clib/printf_percent.s                 0x00000000   Number         0  _printf_i.o ABSOLUTE
    ../clib/printf_percent.s                 0x00000000   Number         0  _printf_d.o ABSOLUTE
    ../clib/printf_percent.s                 0x00000000   Number         0  _printf_u.o ABSOLUTE
    ../clib/printf_percent.s                 0x00000000   Number         0  _printf_f.o ABSOLUTE
    ../clib/printf_percent.s                 0x00000000   Number         0  _printf_e.o ABSOLUTE
    ../clib/printf_percent.s                 0x00000000   Number         0  _printf_g.o ABSOLUTE
    ../clib/printf_percent.s                 0x00000000   Number         0  _printf_percent.o ABSOLUTE
    ../clib/printf_percent.s                 0x00000000   Number         0  _printf_a.o ABSOLUTE
    ../clib/printf_percent.s                 0x00000000   Number         0  _printf_percent_end.o ABSOLUTE
    ../clib/printf_percent.s                 0x00000000   Number         0  _printf_lld.o ABSOLUTE
    ../clib/printf_percent.s                 0x00000000   Number         0  _printf_llu.o ABSOLUTE
    ../clib/printf_percent.s                 0x00000000   Number         0  _printf_ll.o ABSOLUTE
    ../clib/printf_percent.s                 0x00000000   Number         0  _printf_l.o ABSOLUTE
    ../clib/printf_percent.s                 0x00000000   Number         0  _printf_lc.o ABSOLUTE
    ../clib/printf_percent.s                 0x00000000   Number         0  _printf_ls.o ABSOLUTE
    ../clib/printf_percent.s                 0x00000000   Number         0  _printf_llo.o ABSOLUTE
    ../clib/printf_percent.s                 0x00000000   Number         0  _printf_llx.o ABSOLUTE
    ../clib/printf_percent.s                 0x00000000   Number         0  _printf_lli.o ABSOLUTE
    ../clib/signal.c                         0x00000000   Number         0  defsig_rtmem_outer.o ABSOLUTE
    ../clib/signal.c                         0x00000000   Number         0  defsig_rtmem_formal.o ABSOLUTE
    ../clib/signal.c                         0x00000000   Number         0  defsig_exit.o ABSOLUTE
    ../clib/signal.c                         0x00000000   Number         0  defsig_rtmem_inner.o ABSOLUTE
    ../clib/signal.c                         0x00000000   Number         0  defsig_cppl_inner.o ABSOLUTE
    ../clib/signal.c                         0x00000000   Number         0  defsig_segv_inner.o ABSOLUTE
    ../clib/signal.c                         0x00000000   Number         0  defsig_other.o ABSOLUTE
    ../clib/signal.c                         0x00000000   Number         0  __raise.o ABSOLUTE
    ../clib/signal.c                         0x00000000   Number         0  defsig_abrt_inner.o ABSOLUTE
    ../clib/signal.c                         0x00000000   Number         0  defsig_fpe_inner.o ABSOLUTE
    ../clib/signal.c                         0x00000000   Number         0  defsig_general.o ABSOLUTE
    ../clib/signal.c                         0x00000000   Number         0  defsig_rtred_inner.o ABSOLUTE
    ../clib/signal.c                         0x00000000   Number         0  defsig_stak_inner.o ABSOLUTE
    ../clib/signal.c                         0x00000000   Number         0  defsig_pvfn_inner.o ABSOLUTE
    ../clib/signal.s                         0x00000000   Number         0  defsig.o ABSOLUTE
    ../clib/stdlib.c                         0x00000000   Number         0  exit.o ABSOLUTE
    ../clib/string.c                         0x00000000   Number         0  strncmp.o ABSOLUTE
    ../clib/string.c                         0x00000000   Number         0  strchr.o ABSOLUTE
    ../clib/unhosted.s                       0x00000000   Number         0  uread4.o ABSOLUTE
    ../clib/unhosted.s                       0x00000000   Number         0  uwrite4.o ABSOLUTE
    ../fplib/d2f.s                           0x00000000   Number         0  d2f.o ABSOLUTE
    ../fplib/daddsub.s                       0x00000000   Number         0  daddsub_clz.o ABSOLUTE
    ../fplib/dcheck1.s                       0x00000000   Number         0  dcheck1.o ABSOLUTE
    ../fplib/dcmpi.s                         0x00000000   Number         0  dcmpi.o ABSOLUTE
    ../fplib/ddiv.s                          0x00000000   Number         0  ddiv.o ABSOLUTE
    ../fplib/dfixu.s                         0x00000000   Number         0  dfixu.o ABSOLUTE
    ../fplib/dflt.s                          0x00000000   Number         0  dflt_clz.o ABSOLUTE
    ../fplib/dleqf.s                         0x00000000   Number         0  dleqf.o ABSOLUTE
    ../fplib/dmul.s                          0x00000000   Number         0  dmul.o ABSOLUTE
    ../fplib/dnaninf.s                       0x00000000   Number         0  dnaninf.o ABSOLUTE
    ../fplib/dretinf.s                       0x00000000   Number         0  dretinf.o ABSOLUTE
    ../fplib/drleqf.s                        0x00000000   Number         0  drleqf.o ABSOLUTE
    ../fplib/drnd.s                          0x00000000   Number         0  drnd.o ABSOLUTE
    ../fplib/f2d.s                           0x00000000   Number         0  f2d.o ABSOLUTE
    ../fplib/faddsub.s                       0x00000000   Number         0  faddsub_clz.o ABSOLUTE
    ../fplib/fcheck1.s                       0x00000000   Number         0  fcheck1.o ABSOLUTE
    ../fplib/fdiv.s                          0x00000000   Number         0  fdiv.o ABSOLUTE
    ../fplib/fflt.s                          0x00000000   Number         0  fflt_clz.o ABSOLUTE
    ../fplib/fmul.s                          0x00000000   Number         0  fmul.o ABSOLUTE
    ../fplib/fnaninf.s                       0x00000000   Number         0  fnaninf.o ABSOLUTE
    ../fplib/fpinit.s                        0x00000000   Number         0  fpinit.o ABSOLUTE
    ../fplib/fretinf.s                       0x00000000   Number         0  fretinf.o ABSOLUTE
    ../fplib/istatus.s                       0x00000000   Number         0  istatus.o ABSOLUTE
    ../fplib/printf1.s                       0x00000000   Number         0  printf1.o ABSOLUTE
    ../fplib/printf2.s                       0x00000000   Number         0  printf2.o ABSOLUTE
    ../fplib/printf2a.s                      0x00000000   Number         0  printf2a.o ABSOLUTE
    ../fplib/printf2b.s                      0x00000000   Number         0  printf2b.o ABSOLUTE
    ../fplib/retnan.s                        0x00000000   Number         0  retnan.o ABSOLUTE
    ../fplib/scalbn.s                        0x00000000   Number         0  scalbn.o ABSOLUTE
    ../fplib/scalbnf.s                       0x00000000   Number         0  scalbnf.o ABSOLUTE
    ../fplib/trapv.s                         0x00000000   Number         0  trapv.o ABSOLUTE
    ../fplib/usenofp.s                       0x00000000   Number         0  usenofp.o ABSOLUTE
    ../mathlib/ceil.c                        0x00000000   Number         0  ceil.o ABSOLUTE
    ../mathlib/fpclassify.c                  0x00000000   Number         0  fpclassify.o ABSOLUTE
    ../mathlib/round.c                       0x00000000   Number         0  round.o ABSOLUTE
    ..\..\sdk\ble_stack_com\prf\prf.c        0x00000000   Number         0  prf.o ABSOLUTE
    ..\..\sdk\ble_stack_com\prf\prf_utils.c  0x00000000   Number         0  prf_utils.o ABSOLUTE
    ..\..\sdk\ble_stack_com\profiles\FFF0\src\fff0s.c 0x00000000   Number         0  fff0s.o ABSOLUTE
    ..\..\sdk\ble_stack_com\profiles\FFF0\src\fff0s_task.c 0x00000000   Number         0  fff0s_task.o ABSOLUTE
    ..\..\sdk\ble_stack_com\profiles\bas\bass\src\bass.c 0x00000000   Number         0  bass.o ABSOLUTE
    ..\..\sdk\ble_stack_com\profiles\bas\bass\src\bass_task.c 0x00000000   Number         0  bass_task.o ABSOLUTE
    ..\..\sdk\ble_stack_com\profiles\dis\diss\src\diss.c 0x00000000   Number         0  diss.o ABSOLUTE
    ..\..\sdk\ble_stack_com\profiles\dis\diss\src\diss_task.c 0x00000000   Number         0  diss_task.o ABSOLUTE
    ..\..\sdk\ble_stack_com\profiles\oad\src\oads.c 0x00000000   Number         0  oads.o ABSOLUTE
    ..\..\sdk\ble_stack_com\profiles\oad\src\oads_task.c 0x00000000   Number         0  oads_task.o ABSOLUTE
    ..\..\sdk\ble_stack_com\rwble\rwble.c    0x00000000   Number         0  rwble.o ABSOLUTE
    ..\..\sdk\ble_stack_com\rwble_hl\rwble_hl.c 0x00000000   Number         0  rwble_hl.o ABSOLUTE
    ..\..\sdk\ble_stack_com\rwip\src\rwip.c  0x00000000   Number         0  rwip.o ABSOLUTE
    ..\..\sdk\mesh_api\m_api\m_api.c         0x00000000   Number         0  m_api.o ABSOLUTE
    ..\..\sdk\mesh_api\m_api\m_api_msg.c     0x00000000   Number         0  m_api_msg.o ABSOLUTE
    ..\..\sdk\mesh_api\mesh_api\mesh_api.c   0x00000000   Number         0  mesh_api.o ABSOLUTE
    ..\..\sdk\mesh_api\mesh_api\mesh_api_msg.c 0x00000000   Number         0  mesh_api_msg.o ABSOLUTE
    ..\..\sdk\mesh_api\mesh_param\mesh_param_int.c 0x00000000   Number         0  mesh_param_int.o ABSOLUTE
    ..\..\sdk\mesh_api\mm_api\mm_api.c       0x00000000   Number         0  mm_api.o ABSOLUTE
    ..\..\sdk\mesh_api\mm_api\mm_api_msg.c   0x00000000   Number         0  mm_api_msg.o ABSOLUTE
    ..\..\sdk\mesh_api\models\m_fnd_BLOB_Transfer.c 0x00000000   Number         0  m_fnd_blob_transfer.o ABSOLUTE
    ..\..\sdk\mesh_api\models\m_fnd_Fw_Update.c 0x00000000   Number         0  m_fnd_fw_update.o ABSOLUTE
    ..\..\sdk\mesh_api\models\m_fnd_Scenes.c 0x00000000   Number         0  m_fnd_scenes.o ABSOLUTE
    ..\..\sdk\mesh_api\models\mm_vendors.c   0x00000000   Number         0  mm_vendors.o ABSOLUTE
    ..\..\sdk\mesh_inc\src\common\src\mesh_log.c 0x00000000   Number         0  mesh_log.o ABSOLUTE
    ..\..\sdk\mesh_inc\src\models\src\gen\gens\mm_gens.c 0x00000000   Number         0  mm_gens.o ABSOLUTE
    ..\..\sdk\mesh_inc\src\models\src\gen\gens\mm_gens_bat.c 0x00000000   Number         0  mm_gens_bat.o ABSOLUTE
    ..\..\sdk\mesh_inc\src\models\src\gen\gens\mm_gens_dtt.c 0x00000000   Number         0  mm_gens_dtt.o ABSOLUTE
    ..\..\sdk\mesh_inc\src\models\src\gen\gens\mm_gens_loc.c 0x00000000   Number         0  mm_gens_loc.o ABSOLUTE
    ..\..\sdk\mesh_inc\src\models\src\gen\gens\mm_gens_lvl.c 0x00000000   Number         0  mm_gens_lvl.o ABSOLUTE
    ..\..\sdk\mesh_inc\src\models\src\gen\gens\mm_gens_oo.c 0x00000000   Number         0  mm_gens_oo.o ABSOLUTE
    ..\..\sdk\mesh_inc\src\models\src\gen\gens\mm_gens_plvl.c 0x00000000   Number         0  mm_gens_plvl.o ABSOLUTE
    ..\..\sdk\mesh_inc\src\models\src\gen\gens\mm_gens_poo.c 0x00000000   Number         0  mm_gens_poo.o ABSOLUTE
    ..\..\sdk\mesh_inc\src\models\src\gen\gens\mm_gens_prop.c 0x00000000   Number         0  mm_gens_prop.o ABSOLUTE
    ..\..\sdk\mesh_inc\src\models\src\light\lights\mm_lights.c 0x00000000   Number         0  mm_lights.o ABSOLUTE
    ..\..\sdk\mesh_inc\src\models\src\light\lights\mm_lights_ctl.c 0x00000000   Number         0  mm_lights_ctl.o ABSOLUTE
    ..\..\sdk\mesh_inc\src\models\src\light\lights\mm_lights_hsl.c 0x00000000   Number         0  mm_lights_hsl.o ABSOLUTE
    ..\..\sdk\mesh_inc\src\models\src\light\lights\mm_lights_ln.c 0x00000000   Number         0  mm_lights_ln.o ABSOLUTE
    ..\..\sdk\mesh_src\al\aes\aes.c          0x00000000   Number         0  aes.o ABSOLUTE
    ..\..\sdk\mesh_src\al\aes\aes_ccm.c      0x00000000   Number         0  aes_ccm.o ABSOLUTE
    ..\..\sdk\mesh_src\al\aes\aes_cmac.c     0x00000000   Number         0  aes_cmac.o ABSOLUTE
    ..\..\sdk\mesh_src\al\aes\aes_k1.c       0x00000000   Number         0  aes_k1.o ABSOLUTE
    ..\..\sdk\mesh_src\al\aes\aes_k2.c       0x00000000   Number         0  aes_k2.o ABSOLUTE
    ..\..\sdk\mesh_src\al\aes\aes_k3.c       0x00000000   Number         0  aes_k3.o ABSOLUTE
    ..\..\sdk\mesh_src\al\aes\aes_k4.c       0x00000000   Number         0  aes_k4.o ABSOLUTE
    ..\..\sdk\mesh_src\al\aes\aes_s1.c       0x00000000   Number         0  aes_s1.o ABSOLUTE
    ..\..\sdk\mesh_src\al\lld\lld_adv_test.c 0x00000000   Number         0  lld_adv_test.o ABSOLUTE
    ..\..\sdk\mesh_src\al\mal.c              0x00000000   Number         0  mal.o ABSOLUTE
    ..\..\sdk\mesh_src\al\mal_adv.c          0x00000000   Number         0  mal_adv.o ABSOLUTE
    ..\..\sdk\mesh_src\al\mal_con.c          0x00000000   Number         0  mal_con.o ABSOLUTE
    ..\..\sdk\mesh_src\al\mal_djob.c         0x00000000   Number         0  mal_djob.o ABSOLUTE
    ..\..\sdk\mesh_src\al\mal_sec.c          0x00000000   Number         0  mal_sec.o ABSOLUTE
    ..\..\sdk\mesh_src\al\mal_task.c         0x00000000   Number         0  mal_task.o ABSOLUTE
    ..\..\sdk\mesh_src\al\mal_timer.c        0x00000000   Number         0  mal_timer.o ABSOLUTE
    ..\..\sdk\mesh_src\src\common\src\mesh.c 0x00000000   Number         0  mesh.o ABSOLUTE
    ..\..\sdk\mesh_src\src\common\src\tb\mesh_tb.c 0x00000000   Number         0  mesh_tb.o ABSOLUTE
    ..\..\sdk\mesh_src\src\common\src\tb\mesh_tb_buf.c 0x00000000   Number         0  mesh_tb_buf.o ABSOLUTE
    ..\..\sdk\mesh_src\src\common\src\tb\mesh_tb_sec.c 0x00000000   Number         0  mesh_tb_sec.o ABSOLUTE
    ..\..\sdk\mesh_src\src\common\src\tb\mesh_tb_timer.c 0x00000000   Number         0  mesh_tb_timer.o ABSOLUTE
    ..\..\sdk\mesh_src\src\models\src\route\mm_route.c 0x00000000   Number         0  mm_route.o ABSOLUTE
    ..\..\sdk\mesh_src\src\models\src\tb\mm_tb.c 0x00000000   Number         0  mm_tb.o ABSOLUTE
    ..\..\sdk\mesh_src\src\models\src\tb\mm_tb_bind.c 0x00000000   Number         0  mm_tb_bind.o ABSOLUTE
    ..\..\sdk\mesh_src\src\models\src\tb\mm_tb_replay.c 0x00000000   Number         0  mm_tb_replay.o ABSOLUTE
    ..\..\sdk\mesh_src\src\models\src\tb\mm_tb_state.c 0x00000000   Number         0  mm_tb_state.o ABSOLUTE
    ..\..\sdk\mesh_src\src\prf\src\bcn\m_bcn.c 0x00000000   Number         0  m_bcn.o ABSOLUTE
    ..\..\sdk\mesh_src\src\prf\src\bearer\m_bearer.c 0x00000000   Number         0  m_bearer.o ABSOLUTE
    ..\..\sdk\mesh_src\src\prf\src\bearer\m_bearer_adv.c 0x00000000   Number         0  m_bearer_adv.o ABSOLUTE
    ..\..\sdk\mesh_src\src\prf\src\bearer\m_bearer_gatt.c 0x00000000   Number         0  m_bearer_gatt.o ABSOLUTE
    ..\..\sdk\mesh_src\src\prf\src\fnd\m_fnd.c 0x00000000   Number         0  m_fnd.o ABSOLUTE
    ..\..\sdk\mesh_src\src\prf\src\fnd\m_fnd_confs.c 0x00000000   Number         0  m_fnd_confs.o ABSOLUTE
    ..\..\sdk\mesh_src\src\prf\src\fnd\m_fnd_hlths.c 0x00000000   Number         0  m_fnd_hlths.o ABSOLUTE
    ..\..\sdk\mesh_src\src\prf\src\lay\m_lay.c 0x00000000   Number         0  m_lay.o ABSOLUTE
    ..\..\sdk\mesh_src\src\prf\src\lay\m_lay_access.c 0x00000000   Number         0  m_lay_access.o ABSOLUTE
    ..\..\sdk\mesh_src\src\prf\src\lay\m_lay_hb.c 0x00000000   Number         0  m_lay_hb.o ABSOLUTE
    ..\..\sdk\mesh_src\src\prf\src\lay\m_lay_ltrans.c 0x00000000   Number         0  m_lay_ltrans.o ABSOLUTE
    ..\..\sdk\mesh_src\src\prf\src\lay\m_lay_net.c 0x00000000   Number         0  m_lay_net.o ABSOLUTE
    ..\..\sdk\mesh_src\src\prf\src\lay\m_lay_proxy.c 0x00000000   Number         0  m_lay_proxy.o ABSOLUTE
    ..\..\sdk\mesh_src\src\prf\src\lay\m_lay_utrans.c 0x00000000   Number         0  m_lay_utrans.o ABSOLUTE
    ..\..\sdk\mesh_src\src\prf\src\prov\m_prov.c 0x00000000   Number         0  m_prov.o ABSOLUTE
    ..\..\sdk\mesh_src\src\prf\src\prov\m_prov_adv_trans.c 0x00000000   Number         0  m_prov_adv_trans.o ABSOLUTE
    ..\..\sdk\mesh_src\src\prf\src\prov\m_prov_bearer.c 0x00000000   Number         0  m_prov_bearer.o ABSOLUTE
    ..\..\sdk\mesh_src\src\prf\src\tb\m_tb.c 0x00000000   Number         0  m_tb.o ABSOLUTE
    ..\..\sdk\mesh_src\src\prf\src\tb\m_tb_key.c 0x00000000   Number         0  m_tb_key.o ABSOLUTE
    ..\..\sdk\mesh_src\src\prf\src\tb\m_tb_mio.c 0x00000000   Number         0  m_tb_mio.o ABSOLUTE
    ..\..\sdk\mesh_src\src\prf\src\tb\m_tb_state.c 0x00000000   Number         0  m_tb_state.o ABSOLUTE
    ..\..\sdk\mesh_src\src\prf\src\tb\m_tb_store_nvds.c 0x00000000   Number         0  m_tb_store_nvds.o ABSOLUTE
    ..\..\sdk\plactform\src\arch\boot\boot_handlers.s 0x00000000   Number         0  boot_handlers.o ABSOLUTE
    ..\..\sdk\plactform\src\arch\boot\boot_vectors.s 0x00000000   Number         0  boot_vectors.o ABSOLUTE
    ..\..\sdk\plactform\src\core_modules\rf\src\rf_xvr.c 0x00000000   Number         0  rf_xvr.o ABSOLUTE
    ..\..\sdk\plactform\src\driver\emi\emi.c 0x00000000   Number         0  emi.o ABSOLUTE
    ..\..\sdk\plactform\src\driver\flash\flash.c 0x00000000   Number         0  flash.o ABSOLUTE
    ..\..\sdk\plactform\src\driver\gpio\gpio.c 0x00000000   Number         0  gpio.o ABSOLUTE
    ..\..\sdk\plactform\src\driver\icu\icu.c 0x00000000   Number         0  icu.o ABSOLUTE
    ..\..\sdk\plactform\src\driver\intc\intc.c 0x00000000   Number         0  intc.o ABSOLUTE
    ..\..\sdk\plactform\src\driver\pwm\pwm.c 0x00000000   Number         0  pwm.o ABSOLUTE
    ..\..\sdk\plactform\src\driver\timer\timer.c 0x00000000   Number         0  timer.o ABSOLUTE
    ..\..\sdk\plactform\src\driver\uart\uart.c 0x00000000   Number         0  uart.o ABSOLUTE
    ..\..\sdk\plactform\src\driver\wdt\wdt.c 0x00000000   Number         0  wdt.o ABSOLUTE
    ..\general_api\mesh_general_api.c        0x00000000   Number         0  mesh_general_api.o ABSOLUTE
    app\ali_config.c                         0x00000000   Number         0  ali_config.o ABSOLUTE
    app\app.c                                0x00000000   Number         0  app.o ABSOLUTE
    app\app_batt.c                           0x00000000   Number         0  app_batt.o ABSOLUTE
    app\app_dis.c                            0x00000000   Number         0  app_dis.o ABSOLUTE
    app\app_fff0.c                           0x00000000   Number         0  app_fff0.o ABSOLUTE
    app\app_light_ali_server.c               0x00000000   Number         0  app_light_ali_server.o ABSOLUTE
    app\app_mesh.c                           0x00000000   Number         0  app_mesh.o ABSOLUTE
    app\app_mm_msg.c                         0x00000000   Number         0  app_mm_msg.o ABSOLUTE
    app\app_oads.c                           0x00000000   Number         0  app_oads.o ABSOLUTE
    app\app_task.c                           0x00000000   Number         0  app_task.o ABSOLUTE
    app\arch_main.c                          0x00000000   Number         0  arch_main_1.o ABSOLUTE
    app\cli_krhino.c                         0x00000000   Number         0  cli_krhino.o ABSOLUTE
    app\gma\aes.c                            0x00000000   Number         0  aes.o ABSOLUTE
    app\gma\ais.c                            0x00000000   Number         0  ais.o ABSOLUTE
    app\gma\ais_task.c                       0x00000000   Number         0  ais_task.o ABSOLUTE
    app\gma\app_ais.c                        0x00000000   Number         0  app_ais.o ABSOLUTE
    app\gma\gma.c                            0x00000000   Number         0  gma.o ABSOLUTE
    app\gma\sha256.c                         0x00000000   Number         0  sha256.o ABSOLUTE
    app\led.c                                0x00000000   Number         0  led.o ABSOLUTE
    app\oad_common.c                         0x00000000   Number         0  oad_common.o ABSOLUTE
    app\rf_pn9_test.c                        0x00000000   Number         0  rf_pn9_test.o ABSOLUTE
    app\soft_aes.c                           0x00000000   Number         0  soft_aes.o ABSOLUTE
    dc.s                                     0x00000000   Number         0  dc.o ABSOLUTE
    SYS_BOOT                                 0x00023e00   Section       92  boot_vectors.o(SYS_BOOT)
    Undefined                                0x00023e40   ARM Code       0  boot_vectors.o(SYS_BOOT)
    SoftwareInterrupt                        0x00023e44   ARM Code       0  boot_vectors.o(SYS_BOOT)
    PrefetchAbort                            0x00023e48   ARM Code       0  boot_vectors.o(SYS_BOOT)
    DataAbort                                0x00023e4c   ARM Code       0  boot_vectors.o(SYS_BOOT)
    IRQ_Handler                              0x00023e50   ARM Code       0  boot_vectors.o(SYS_BOOT)
    sys_reserved                             0x00023e54   ARM Code       0  boot_vectors.o(SYS_BOOT)
    FIQ_Handler                              0x00023e58   ARM Code       0  boot_vectors.o(SYS_BOOT)
    SYS_BOOT                                 0x00023e5c   Section      512  boot_handlers.o(SYS_BOOT)
    sys_fiq_entry                            0x00024100   Section        0  intc.o(sys_fiq_entry)
    sys_irq_entry                            0x00024120   Section        0  intc.o(sys_irq_entry)
    !!!main                                  0x00024130   Section        8  __main.o(!!!main)
    !!!scatter                               0x00024138   Section       60  __scatter.o(!!!scatter)
    !!dczerorl2                              0x00024174   Section       92  __dczerorl2.o(!!dczerorl2)
    _decompress_loop                         0x0002417f   Thumb Code     0  __dczerorl2.o(!!dczerorl2)
    _decompress_zerolen                      0x0002418d   Thumb Code     0  __dczerorl2.o(!!dczerorl2)
    _decompress_litn                         0x00024195   Thumb Code     0  __dczerorl2.o(!!dczerorl2)
    _decompress_lit                          0x00024199   Thumb Code     0  __dczerorl2.o(!!dczerorl2)
    _decompress_copyorzero                   0x000241a5   Thumb Code     0  __dczerorl2.o(!!dczerorl2)
    _decompress_zero                         0x000241ad   Thumb Code     0  __dczerorl2.o(!!dczerorl2)
    _decompress_copyn                        0x000241b7   Thumb Code     0  __dczerorl2.o(!!dczerorl2)
    _decompress_copy                         0x000241bf   Thumb Code     0  __dczerorl2.o(!!dczerorl2)
    _decompress_end                          0x000241cb   Thumb Code     0  __dczerorl2.o(!!dczerorl2)
    !!handler_zi                             0x000241d0   Section       44  __scatter_zi.o(!!handler_zi)
    .ARM.Collect$$_printf_percent$$00000000  0x000241fc   Section        0  _printf_percent.o(.ARM.Collect$$_printf_percent$$00000000)
    .ARM.Collect$$_printf_percent$$00000001  0x000241fc   Section        8  _printf_n.o(.ARM.Collect$$_printf_percent$$00000001)
    .ARM.Collect$$_printf_percent$$00000002  0x00024204   Section        8  _printf_p.o(.ARM.Collect$$_printf_percent$$00000002)
    .ARM.Collect$$_printf_percent$$00000003  0x0002420c   Section        8  _printf_f.o(.ARM.Collect$$_printf_percent$$00000003)
    .ARM.Collect$$_printf_percent$$00000004  0x00024214   Section        8  _printf_e.o(.ARM.Collect$$_printf_percent$$00000004)
    .ARM.Collect$$_printf_percent$$00000005  0x0002421c   Section        8  _printf_g.o(.ARM.Collect$$_printf_percent$$00000005)
    .ARM.Collect$$_printf_percent$$00000006  0x00024224   Section        8  _printf_a.o(.ARM.Collect$$_printf_percent$$00000006)
    .ARM.Collect$$_printf_percent$$00000007  0x0002422c   Section       12  _printf_ll.o(.ARM.Collect$$_printf_percent$$00000007)
    .ARM.Collect$$_printf_percent$$00000008  0x00024238   Section        8  _printf_i.o(.ARM.Collect$$_printf_percent$$00000008)
    .ARM.Collect$$_printf_percent$$00000009  0x00024240   Section        8  _printf_d.o(.ARM.Collect$$_printf_percent$$00000009)
    .ARM.Collect$$_printf_percent$$0000000A  0x00024248   Section        8  _printf_u.o(.ARM.Collect$$_printf_percent$$0000000A)
    .ARM.Collect$$_printf_percent$$0000000B  0x00024250   Section        8  _printf_o.o(.ARM.Collect$$_printf_percent$$0000000B)
    .ARM.Collect$$_printf_percent$$0000000C  0x00024258   Section        8  _printf_x.o(.ARM.Collect$$_printf_percent$$0000000C)
    .ARM.Collect$$_printf_percent$$0000000D  0x00024260   Section        8  _printf_lli.o(.ARM.Collect$$_printf_percent$$0000000D)
    .ARM.Collect$$_printf_percent$$0000000E  0x00024268   Section        8  _printf_lld.o(.ARM.Collect$$_printf_percent$$0000000E)
    .ARM.Collect$$_printf_percent$$0000000F  0x00024270   Section        8  _printf_llu.o(.ARM.Collect$$_printf_percent$$0000000F)
    .ARM.Collect$$_printf_percent$$00000010  0x00024278   Section        8  _printf_llo.o(.ARM.Collect$$_printf_percent$$00000010)
    .ARM.Collect$$_printf_percent$$00000011  0x00024280   Section        8  _printf_llx.o(.ARM.Collect$$_printf_percent$$00000011)
    .ARM.Collect$$_printf_percent$$00000012  0x00024288   Section       12  _printf_l.o(.ARM.Collect$$_printf_percent$$00000012)
    .ARM.Collect$$_printf_percent$$00000013  0x00024294   Section        8  _printf_c.o(.ARM.Collect$$_printf_percent$$00000013)
    .ARM.Collect$$_printf_percent$$00000014  0x0002429c   Section        8  _printf_s.o(.ARM.Collect$$_printf_percent$$00000014)
    .ARM.Collect$$_printf_percent$$00000015  0x000242a4   Section        8  _printf_lc.o(.ARM.Collect$$_printf_percent$$00000015)
    .ARM.Collect$$_printf_percent$$00000016  0x000242ac   Section        8  _printf_ls.o(.ARM.Collect$$_printf_percent$$00000016)
    .ARM.Collect$$_printf_percent$$00000017  0x000242b4   Section        8  _printf_percent_end.o(.ARM.Collect$$_printf_percent$$00000017)
    .ARM.Collect$$libinit$$00000000          0x000242bc   Section        2  libinit.o(.ARM.Collect$$libinit$$00000000)
    .ARM.Collect$$libinit$$00000002          0x000242be   Section        0  libinit2.o(.ARM.Collect$$libinit$$00000002)
    .ARM.Collect$$libinit$$00000004          0x000242be   Section        0  libinit2.o(.ARM.Collect$$libinit$$00000004)
    .ARM.Collect$$libinit$$0000000A          0x000242be   Section        0  libinit2.o(.ARM.Collect$$libinit$$0000000A)
    .ARM.Collect$$libinit$$0000000C          0x000242be   Section        0  libinit2.o(.ARM.Collect$$libinit$$0000000C)
    .ARM.Collect$$libinit$$0000000E          0x000242be   Section        0  libinit2.o(.ARM.Collect$$libinit$$0000000E)
    .ARM.Collect$$libinit$$0000000F          0x000242be   Section        6  libinit2.o(.ARM.Collect$$libinit$$0000000F)
    .ARM.Collect$$libinit$$00000011          0x000242c4   Section        0  libinit2.o(.ARM.Collect$$libinit$$00000011)
    .ARM.Collect$$libinit$$00000012          0x000242c4   Section       12  libinit2.o(.ARM.Collect$$libinit$$00000012)
    .ARM.Collect$$libinit$$00000013          0x000242d0   Section        0  libinit2.o(.ARM.Collect$$libinit$$00000013)
    .ARM.Collect$$libinit$$00000015          0x000242d0   Section        0  libinit2.o(.ARM.Collect$$libinit$$00000015)
    .ARM.Collect$$libinit$$00000016          0x000242d0   Section       10  libinit2.o(.ARM.Collect$$libinit$$00000016)
    .ARM.Collect$$libinit$$00000017          0x000242da   Section        0  libinit2.o(.ARM.Collect$$libinit$$00000017)
    .ARM.Collect$$libinit$$00000019          0x000242da   Section        0  libinit2.o(.ARM.Collect$$libinit$$00000019)
    .ARM.Collect$$libinit$$0000001B          0x000242da   Section        0  libinit2.o(.ARM.Collect$$libinit$$0000001B)
    .ARM.Collect$$libinit$$0000001D          0x000242da   Section        0  libinit2.o(.ARM.Collect$$libinit$$0000001D)
    .ARM.Collect$$libinit$$0000001F          0x000242da   Section        0  libinit2.o(.ARM.Collect$$libinit$$0000001F)
    .ARM.Collect$$libinit$$00000021          0x000242da   Section        0  libinit2.o(.ARM.Collect$$libinit$$00000021)
    .ARM.Collect$$libinit$$00000023          0x000242da   Section        0  libinit2.o(.ARM.Collect$$libinit$$00000023)
    .ARM.Collect$$libinit$$00000025          0x000242da   Section        0  libinit2.o(.ARM.Collect$$libinit$$00000025)
    .ARM.Collect$$libinit$$0000002C          0x000242da   Section        0  libinit2.o(.ARM.Collect$$libinit$$0000002C)
    .ARM.Collect$$libinit$$0000002E          0x000242da   Section        0  libinit2.o(.ARM.Collect$$libinit$$0000002E)
    .ARM.Collect$$libinit$$00000030          0x000242da   Section        0  libinit2.o(.ARM.Collect$$libinit$$00000030)
    .ARM.Collect$$libinit$$00000032          0x000242da   Section        0  libinit2.o(.ARM.Collect$$libinit$$00000032)
    .ARM.Collect$$libinit$$00000033          0x000242da   Section        2  libinit2.o(.ARM.Collect$$libinit$$00000033)
    .ARM.Collect$$libshutdown$$00000000      0x000242dc   Section        2  libshutdown.o(.ARM.Collect$$libshutdown$$00000000)
    .ARM.Collect$$libshutdown$$00000002      0x000242de   Section        0  libshutdown2.o(.ARM.Collect$$libshutdown$$00000002)
    .ARM.Collect$$libshutdown$$00000004      0x000242de   Section        0  libshutdown2.o(.ARM.Collect$$libshutdown$$00000004)
    .ARM.Collect$$libshutdown$$00000007      0x000242de   Section        0  libshutdown2.o(.ARM.Collect$$libshutdown$$00000007)
    .ARM.Collect$$libshutdown$$0000000A      0x000242de   Section        0  libshutdown2.o(.ARM.Collect$$libshutdown$$0000000A)
    .ARM.Collect$$libshutdown$$0000000C      0x000242de   Section        0  libshutdown2.o(.ARM.Collect$$libshutdown$$0000000C)
    .ARM.Collect$$libshutdown$$0000000F      0x000242de   Section        0  libshutdown2.o(.ARM.Collect$$libshutdown$$0000000F)
    .ARM.Collect$$libshutdown$$00000010      0x000242de   Section        2  libshutdown2.o(.ARM.Collect$$libshutdown$$00000010)
    .ARM.Collect$$rtentry$$00000000          0x000242e0   Section        0  __rtentry.o(.ARM.Collect$$rtentry$$00000000)
    .ARM.Collect$$rtentry$$00000002          0x000242e0   Section        0  __rtentry2.o(.ARM.Collect$$rtentry$$00000002)
    .ARM.Collect$$rtentry$$00000004          0x000242e0   Section        8  __rtentry4.o(.ARM.Collect$$rtentry$$00000004)
    .ARM.Collect$$rtentry$$00000009          0x000242e8   Section        0  __rtentry2.o(.ARM.Collect$$rtentry$$00000009)
    .ARM.Collect$$rtentry$$0000000A          0x000242e8   Section        4  __rtentry2.o(.ARM.Collect$$rtentry$$0000000A)
    .ARM.Collect$$rtentry$$0000000C          0x000242ec   Section        0  __rtentry2.o(.ARM.Collect$$rtentry$$0000000C)
    .ARM.Collect$$rtentry$$0000000D          0x000242ec   Section       40  __rtentry2.o(.ARM.Collect$$rtentry$$0000000D)
    .ARM.Collect$$rtexit$$00000000           0x00024314   Section        4  rtexit.o(.ARM.Collect$$rtexit$$00000000)
    .ARM.Collect$$rtexit$$00000002           0x00024318   Section        0  rtexit2.o(.ARM.Collect$$rtexit$$00000002)
    .ARM.Collect$$rtexit$$00000003           0x00024318   Section        4  rtexit2.o(.ARM.Collect$$rtexit$$00000003)
    .ARM.Collect$$rtexit$$00000004           0x0002431c   Section        8  rtexit2.o(.ARM.Collect$$rtexit$$00000004)
    .text                                    0x00024324   Section        0  arch_main_1.o(.text)
    uart_rx_handler                          0x00024511   Thumb Code    44  arch_main_1.o(.text)
    Stack_Integrity_Check                    0x0002467d   Thumb Code   798  arch_main_1.o(.text)
    .text                                    0x00024a74   Section        0  mesh_log.o(.text)
    .text                                    0x00024ad0   Section        0  rwble_hl.o(.text)
    .text                                    0x00024b08   Section        0  rwble.o(.text)
    .text                                    0x00024e38   Section        0  rwip.o(.text)
    .text                                    0x00025278   Section        0  icu.o(.text)
    .text                                    0x00025420   Section        0  intc.o(.text)
    .text                                    0x000254f4   Section        0  uart.o(.text)
    uart_send_byte                           0x00025a3f   Thumb Code    14  uart.o(.text)
    .text                                    0x00025a58   Section        0  emi.o(.text)
    .text                                    0x00025a70   Section        0  flash.o(.text)
    .text                                    0x000260ec   Section        0  timer.o(.text)
    .text                                    0x00026118   Section        0  rf_xvr.o(.text)
    rf_reset                                 0x00026119   Thumb Code     2  rf_xvr.o(.text)
    rf_txpwr_dbm_get                         0x0002611b   Thumb Code     4  rf_xvr.o(.text)
    rf_sleep                                 0x0002611f   Thumb Code    14  rf_xvr.o(.text)
    rf_rssi_convert                          0x0002612d   Thumb Code    10  rf_xvr.o(.text)
    rf_rpl_reg_rd                            0x00026137   Thumb Code     4  rf_xvr.o(.text)
    rf_rpl_reg_wr                            0x0002613b   Thumb Code     4  rf_xvr.o(.text)
    rf_force_agc_enable                      0x0002613f   Thumb Code    16  rf_xvr.o(.text)
    .text                                    0x000265c0   Section        0  wdt.o(.text)
    .text                                    0x0002664c   Section        0  gpio.o(.text)
    .text                                    0x00026950   Section        0  pwm.o(.text)
    .text                                    0x00026b04   Section        0  bass.o(.text)
    bass_init                                0x00026b05   Thumb Code   348  bass.o(.text)
    bass_destroy                             0x00026c61   Thumb Code    28  bass.o(.text)
    bass_create                              0x00026c7d   Thumb Code    28  bass.o(.text)
    bass_cleanup                             0x00026c99   Thumb Code    28  bass.o(.text)
    bass_notify_batt_lvl                     0x00026d33   Thumb Code    64  bass.o(.text)
    .text                                    0x00026f48   Section        0  bass_task.o(.text)
    bass_enable_req_handler                  0x00026f49   Thumb Code   122  bass_task.o(.text)
    bass_batt_level_upd_req_handler          0x00026fc3   Thumb Code   100  bass_task.o(.text)
    gattc_att_info_req_ind_handler           0x00027027   Thumb Code    78  bass_task.o(.text)
    gattc_write_req_ind_handler              0x00027075   Thumb Code   160  bass_task.o(.text)
    gattc_read_req_ind_handler               0x00027115   Thumb Code   186  bass_task.o(.text)
    gattc_cmp_evt_handler                    0x000271cf   Thumb Code    16  bass_task.o(.text)
    .text                                    0x000271ec   Section        0  diss.o(.text)
    diss_init                                0x00027215   Thumb Code   130  diss.o(.text)
    diss_destroy                             0x00027297   Thumb Code    36  diss.o(.text)
    diss_create                              0x000272bb   Thumb Code     2  diss.o(.text)
    diss_cleanup                             0x000272bd   Thumb Code     2  diss.o(.text)
    .text                                    0x0002736c   Section        0  diss_task.o(.text)
    diss_set_value_req_handler               0x0002736d   Thumb Code   150  diss_task.o(.text)
    gattc_read_req_ind_handler               0x00027403   Thumb Code   186  diss_task.o(.text)
    diss_value_cfm_handler                   0x000274bd   Thumb Code   120  diss_task.o(.text)
    .text                                    0x0002753c   Section        0  fff0s.o(.text)
    fff0s_init                               0x0002753d   Thumb Code   204  fff0s.o(.text)
    fff0s_destroy                            0x00027609   Thumb Code    28  fff0s.o(.text)
    fff0s_create                             0x00027625   Thumb Code    32  fff0s.o(.text)
    fff0s_cleanup                            0x00027645   Thumb Code    32  fff0s.o(.text)
    .text                                    0x0002774c   Section        0  fff0s_task.o(.text)
    fff0s_fff1_level_upd_req_handler         0x0002774d   Thumb Code    56  fff0s_task.o(.text)
    gattc_att_info_req_ind_handler           0x00027785   Thumb Code    74  fff0s_task.o(.text)
    gattc_write_req_ind_handler              0x000277cf   Thumb Code   206  fff0s_task.o(.text)
    gattc_read_req_ind_handler               0x0002789d   Thumb Code   140  fff0s_task.o(.text)
    gattc_cmp_evt_handler                    0x00027929   Thumb Code    68  fff0s_task.o(.text)
    .text                                    0x00027974   Section        0  oads.o(.text)
    oads_init                                0x00027975   Thumb Code   182  oads.o(.text)
    oads_destroy                             0x00027a2b   Thumb Code    28  oads.o(.text)
    oads_create                              0x00027a47   Thumb Code    38  oads.o(.text)
    oads_cleanup                             0x00027a6d   Thumb Code    38  oads.o(.text)
    oadImgIdentifyReq                        0x00027b73   Thumb Code   150  oads.o(.text)
    oadImgBlockReq                           0x00027c09   Thumb Code    76  oads.o(.text)
    .text                                    0x0002823c   Section        0  oads_task.o(.text)
    oads_enable_req_handler                  0x0002823d   Thumb Code   120  oads_task.o(.text)
    oads_ffc1_upd_req_handler                0x000282b5   Thumb Code    12  oads_task.o(.text)
    oads_ffc2_upd_req_handler                0x000282c1   Thumb Code    16  oads_task.o(.text)
    gattc_write_req_ind_handler              0x000282d1   Thumb Code   282  oads_task.o(.text)
    gattc_read_req_ind_handler               0x000283eb   Thumb Code   212  oads_task.o(.text)
    gattc_cmp_evt_handler                    0x000284bf   Thumb Code     4  oads_task.o(.text)
    .text                                    0x00028558   Section        0  prf.o(.text)
    prf_itf_get                              0x00028559   Thumb Code    90  prf.o(.text)
    .text                                    0x00028880   Section        0  prf_utils.o(.text)
    .text                                    0x000288e0   Section        0  app.o(.text)
    .text                                    0x00028a50   Section        0  app_task.o(.text)
    appm_get_handler                         0x00028a51   Thumb Code    88  app_task.o(.text)
    gapm_device_ready_ind_handler            0x00028aa9   Thumb Code    46  app_task.o(.text)
    gapm_cmp_evt_handler                     0x00028ad7   Thumb Code   218  app_task.o(.text)
    gapc_get_dev_info_req_ind_handler        0x00028bb1   Thumb Code   104  app_task.o(.text)
    gapc_set_dev_info_req_ind_handler        0x00028c19   Thumb Code    34  app_task.o(.text)
    gapc_connection_req_ind_handler          0x00028c3b   Thumb Code    94  app_task.o(.text)
    gapc_cmp_evt_handler                     0x00028c99   Thumb Code    94  app_task.o(.text)
    gapc_disconnect_ind_handler              0x00028cf7   Thumb Code    58  app_task.o(.text)
    gapm_profile_added_ind_handler           0x00028d31   Thumb Code    30  app_task.o(.text)
    app_period_timer_handler                 0x00028d4f   Thumb Code    16  app_task.o(.text)
    appm_msg_handler                         0x00028d5f   Thumb Code    72  app_task.o(.text)
    gapc_update_conn_param_req_ind_handler   0x00028da7   Thumb Code    36  app_task.o(.text)
    gapc_le_pkt_size_ind_handler             0x00028dcb   Thumb Code    50  app_task.o(.text)
    gapc_param_updated_ind_handler           0x00028dfd   Thumb Code    42  app_task.o(.text)
    gattc_mtu_changed_ind_handler            0x00028e27   Thumb Code   888  app_task.o(.text)
    gapc_param_update_req_ind_handler        0x0002919f   Thumb Code    46  app_task.o(.text)
    hci_ahi_msg_process_handler              0x000291cd   Thumb Code    52  app_task.o(.text)
    hci_ahi_msg_timer_handler                0x00029201   Thumb Code    38  app_task.o(.text)
    .text                                    0x000292d4   Section        0  app_mesh.o(.text)
    app_get_prov_param                       0x000293dd   Thumb Code   222  app_mesh.o(.text)
    app_unprov_adv_cb_timerout               0x000294bb   Thumb Code    90  app_mesh.o(.text)
    app_mesh_msg_dflt_handler                0x00029547   Thumb Code    10  app_mesh.o(.text)
    app_mesh_msg_model_app_bind_handler      0x00029551   Thumb Code   108  app_mesh.o(.text)
    app_mesh_msg_node_reset_handler          0x000295bd   Thumb Code    50  app_mesh.o(.text)
    app_mesh_msg_key_ind_handler             0x000295ef   Thumb Code   142  app_mesh.o(.text)
    app_mesh_api_cmp_handler                 0x0002967d   Thumb Code   818  app_mesh.o(.text)
    app_mesh_model_api_cmp_handler           0x000299af   Thumb Code    36  app_mesh.o(.text)
    app_mesh_api_prov_auth_data_req_ind_handler 0x000299d3   Thumb Code   174  app_mesh.o(.text)
    app_mesh_api_prov_param_req_ind_handler  0x00029a81   Thumb Code    54  app_mesh.o(.text)
    app_mesh_api_prov_attention_update_ind_handler 0x00029ab7   Thumb Code    24  app_mesh.o(.text)
    app_mesh_api_prov_state_ind_handler      0x00029acf   Thumb Code   118  app_mesh.o(.text)
    .text                                    0x00029d90   Section        0  app_mm_msg.o(.text)
    .text                                    0x0002a3a4   Section        0  mesh_general_api.o(.text)
    .text                                    0x0002a4c8   Section        0  app_batt.o(.text)
    bass_batt_level_ntf_cfg_ind_handler      0x0002a55d   Thumb Code     4  app_batt.o(.text)
    batt_level_upd_handler                   0x0002a561   Thumb Code     4  app_batt.o(.text)
    bass_enable_rsp_handler                  0x0002a565   Thumb Code     4  app_batt.o(.text)
    app_batt_msg_dflt_handler                0x0002a569   Thumb Code     4  app_batt.o(.text)
    .text                                    0x0002a5a4   Section        0  app_dis.o(.text)
    diss_value_req_ind_handler               0x0002a5a5   Thumb Code   142  app_dis.o(.text)
    .text                                    0x0002a6d0   Section        0  app_fff0.o(.text)
    fff0s_fff1_level_ntf_cfg_ind_handler     0x0002a733   Thumb Code    44  app_fff0.o(.text)
    fff1_level_upd_handler                   0x0002a75f   Thumb Code    36  app_fff0.o(.text)
    app_fff0_msg_dflt_handler                0x0002a783   Thumb Code    14  app_fff0.o(.text)
    fff2_writer_req_handler                  0x0002a791   Thumb Code    32  app_fff0.o(.text)
    fff1_period_ntf_handler                  0x0002a7b1   Thumb Code    28  app_fff0.o(.text)
    .text                                    0x0002a85c   Section        0  app_oads.o(.text)
    oads_enable_rsp_handler                  0x0002a8cd   Thumb Code     4  app_oads.o(.text)
    app_oads_msg_dflt_handler                0x0002a8d1   Thumb Code    32  app_oads.o(.text)
    app_ffc1_writer_req_handler              0x0002a8f1   Thumb Code    28  app_oads.o(.text)
    app_ffc2_writer_req_handler              0x0002a90d   Thumb Code    16  app_oads.o(.text)
    oads_ffc1_upd_rsp_handler                0x0002a977   Thumb Code    16  app_oads.o(.text)
    oads_ffc2_upd_rsp_handler                0x0002a987   Thumb Code    16  app_oads.o(.text)
    .text                                    0x0002aa4c   Section        0  oad_common.o(.text)
    .text                                    0x0002aec0   Section        0  ali_config.o(.text)
    .text                                    0x0002b05c   Section        0  app_light_ali_server.o(.text)
    .text                                    0x0002b930   Section        0  led.o(.text)
    color_16to8                              0x0002be6d   Thumb Code    32  led.o(.text)
    color_8to16                              0x0002bf0b   Thumb Code    32  led.o(.text)
    .text                                    0x0002c7e0   Section        0  m_api.o(.text)
    m_api_bearer_started_cb                  0x0002c7e1   Thumb Code    58  m_api.o(.text)
    m_api_bearer_stopped_cb                  0x0002c81b   Thumb Code    34  m_api.o(.text)
    m_api_storage_load_cb                    0x0002c83d   Thumb Code     8  m_api.o(.text)
    .text                                    0x0002cdb0   Section        0  m_api_msg.o(.text)
    m_api_msg_enabled_cb                     0x0002cdb1   Thumb Code    20  m_api_msg.o(.text)
    m_api_msg_disabled_cb                    0x0002cdc5   Thumb Code    20  m_api_msg.o(.text)
    m_api_msg_model_rx_cb                    0x0002cdd9   Thumb Code    82  m_api_msg.o(.text)
    m_api_msg_model_opcode_check_cb          0x0002ce2b   Thumb Code    36  m_api_msg.o(.text)
    m_api_msg_model_sent_cb                  0x0002ce4f   Thumb Code    48  m_api_msg.o(.text)
    m_api_msg_model_publish_param_cb         0x0002ce7f   Thumb Code    40  m_api_msg.o(.text)
    m_api_msg_prov_state_cb                  0x0002cea7   Thumb Code    34  m_api_msg.o(.text)
    m_api_msg_loaded_cb                      0x0002cec9   Thumb Code    20  m_api_msg.o(.text)
    m_api_msg_prov_param_req_cb              0x0002cedd   Thumb Code    26  m_api_msg.o(.text)
    m_api_msg_prov_oob_auth_req_cb           0x0002cef7   Thumb Code    38  m_api_msg.o(.text)
    m_api_msg_attention_cb                   0x0002cf1d   Thumb Code    30  m_api_msg.o(.text)
    m_api_msg_compo_data_cb                  0x0002cf3b   Thumb Code    30  m_api_msg.o(.text)
    m_api_msg_fault_get_cb                   0x0002cf59   Thumb Code    30  m_api_msg.o(.text)
    m_api_msg_fault_test_cb                  0x0002cf77   Thumb Code    38  m_api_msg.o(.text)
    m_api_msg_fault_clear_cb                 0x0002cf9d   Thumb Code    30  m_api_msg.o(.text)
    m_api_msg_fault_period_cb                0x0002cfbb   Thumb Code    34  m_api_msg.o(.text)
    m_api_msg_node_reset_cb                  0x0002cfdd   Thumb Code    26  m_api_msg.o(.text)
    m_api_msg_proxy_adv_update_cb            0x0002cff7   Thumb Code    34  m_api_msg.o(.text)
    m_api_msg_exec_cmd                       0x0002d019   Thumb Code   340  m_api_msg.o(.text)
    m_api_basic_cmp_evt_send                 0x0002d2a5   Thumb Code    30  m_api_msg.o(.text)
    m_api_model_publish_cmd_handler          0x0002d2c3   Thumb Code    98  m_api_msg.o(.text)
    m_api_model_rsp_send_cmd_handler         0x0002d325   Thumb Code   128  m_api_msg.o(.text)
    .text                                    0x0002d3d4   Section        0  mesh_api.o(.text)
    .text                                    0x0002d4a0   Section        0  mesh_api_msg.o(.text)
    mesh_api_msg_buf_block_freed_cb          0x0002d4a1   Thumb Code    36  mesh_api_msg.o(.text)
    mesh_api_msg_handler_cmd                 0x0002d4c5   Thumb Code   194  mesh_api_msg.o(.text)
    mesh_api_msg_basic_cmp_evt_send          0x0002d5b1   Thumb Code    30  mesh_api_msg.o(.text)
    .text                                    0x0002d5e0   Section        0  mesh_param_int.o(.text)
    .text                                    0x0002d620   Section        0  mm_api_msg.o(.text)
    mm_api_msg_cb_register_ind               0x0002d621   Thumb Code    40  mm_api_msg.o(.text)
    mm_api_msg_cb_srv_state_upd_ind          0x0002d649   Thumb Code    48  mm_api_msg.o(.text)
    mm_api_msg_cb_srv_array_state_upd_ind    0x0002d679   Thumb Code    60  mm_api_msg.o(.text)
    mm_api_msg_cb_srv_state_req_ind          0x0002d6b5   Thumb Code    34  mm_api_msg.o(.text)
    mm_api_msg_cb_srv_locg_upd_ind           0x0002d6d7   Thumb Code    46  mm_api_msg.o(.text)
    mm_api_msg_cb_srv_locl_upd_ind           0x0002d705   Thumb Code    54  mm_api_msg.o(.text)
    mm_api_msg_cb_srv_prop_get_req_ind       0x0002d73b   Thumb Code    42  mm_api_msg.o(.text)
    mm_api_msg_cb_srv_prop_set_req_ind       0x0002d765   Thumb Code    70  mm_api_msg.o(.text)
    mm_api_msg_handler_cmd                   0x0002d7d3   Thumb Code   118  mm_api_msg.o(.text)
    mm_api_msg_send_basic_cmp_evt            0x0002d849   Thumb Code    32  mm_api_msg.o(.text)
    .text                                    0x0002d898   Section        0  mm_api.o(.text)
    .text                                    0x0002db04   Section        0  m_fnd_blob_transfer.o(.text)
    m_fnd_blob_send                          0x0002db05   Thumb Code    38  m_fnd_blob_transfer.o(.text)
    m_fnd_blob_send_model_obj_trans_status   0x0002db2b   Thumb Code    88  m_fnd_blob_transfer.o(.text)
    m_fnd_blob_send_model_obj_blk_trans_status 0x0002db83   Thumb Code    40  m_fnd_blob_transfer.o(.text)
    m_fnd_blob_handler_obj_blk               0x0002dbab   Thumb Code   284  m_fnd_blob_transfer.o(.text)
    m_fnd_blob_handler_obj_chunk             0x0002dcc7   Thumb Code   256  m_fnd_blob_transfer.o(.text)
    m_fnd_blob_process                       0x0002ddc7   Thumb Code   126  m_fnd_blob_transfer.o(.text)
    m_fnd_blob_process_next                  0x0002de45   Thumb Code    28  m_fnd_blob_transfer.o(.text)
    m_fnd_blob_handler_obj_obj               0x0002de61   Thumb Code   120  m_fnd_blob_transfer.o(.text)
    m_fnd_blob_cb_rx                         0x0002ded9   Thumb Code    84  m_fnd_blob_transfer.o(.text)
    m_fnd_blob_cb_opcode_check               0x0002df2d   Thumb Code    70  m_fnd_blob_transfer.o(.text)
    m_fnd_blob_cb_sent                       0x0002df73   Thumb Code    10  m_fnd_blob_transfer.o(.text)
    m_fnd_blob_cb_publish_period             0x0002df7d   Thumb Code     2  m_fnd_blob_transfer.o(.text)
    m_fnd_blob_buf_alloc                     0x0002e01d   Thumb Code    14  m_fnd_blob_transfer.o(.text)
    m_fnd_blob_send_model_obj_blk_status     0x0002e02b   Thumb Code   130  m_fnd_blob_transfer.o(.text)
    .text                                    0x0002e0bc   Section        0  m_fnd_fw_update.o(.text)
    m_fnd_fw_update_send                     0x0002e0bd   Thumb Code    40  m_fnd_fw_update.o(.text)
    m_fnd_fw_update_send_model_update_status 0x0002e0e5   Thumb Code    82  m_fnd_fw_update.o(.text)
    m_fnd_fw_update_handler_update           0x0002e137   Thumb Code   182  m_fnd_fw_update.o(.text)
    m_fnd_fw_update_process                  0x0002e1ed   Thumb Code    50  m_fnd_fw_update.o(.text)
    m_fnd_fw_update_process_next             0x0002e21f   Thumb Code    28  m_fnd_fw_update.o(.text)
    m_fnd_fw_update_handler_information      0x0002e23b   Thumb Code    32  m_fnd_fw_update.o(.text)
    m_fnd_fw_update_cb_rx                    0x0002e25b   Thumb Code    56  m_fnd_fw_update.o(.text)
    m_fnd_fw_update_cb_opcode_check          0x0002e293   Thumb Code    52  m_fnd_fw_update.o(.text)
    m_fnd_fw_update_cb_sent                  0x0002e2c7   Thumb Code    10  m_fnd_fw_update.o(.text)
    m_fnd_fw_update_cb_publish_period        0x0002e2d1   Thumb Code     2  m_fnd_fw_update.o(.text)
    m_fnd_fw_update_buf_alloc                0x0002e369   Thumb Code    14  m_fnd_fw_update.o(.text)
    m_fnd_fw_update_send_model_info_status   0x0002e377   Thumb Code    90  m_fnd_fw_update.o(.text)
    .text                                    0x0002e3ec   Section        0  m_fnd_scenes.o(.text)
    m_fnd_scenes_send                        0x0002e3ed   Thumb Code    40  m_fnd_scenes.o(.text)
    m_fnd_scenes_send_model_status           0x0002e45f   Thumb Code    52  m_fnd_scenes.o(.text)
    m_fnd_scenes_handler_register            0x0002e493   Thumb Code   160  m_fnd_scenes.o(.text)
    m_fnd_scenes_process                     0x0002e533   Thumb Code    50  m_fnd_scenes.o(.text)
    m_fnd_scenes_process_next                0x0002e565   Thumb Code    30  m_fnd_scenes.o(.text)
    m_fnd_scenes_handler_recall              0x0002e583   Thumb Code   278  m_fnd_scenes.o(.text)
    m_fnd_scenes_cb_rx                       0x0002e699   Thumb Code    58  m_fnd_scenes.o(.text)
    m_fnd_scenes_cb_opcode_check             0x0002e6d3   Thumb Code    62  m_fnd_scenes.o(.text)
    m_fnd_scenes_cb_sent                     0x0002e711   Thumb Code    10  m_fnd_scenes.o(.text)
    m_fnd_scenes_cb_publish_period           0x0002e71b   Thumb Code     2  m_fnd_scenes.o(.text)
    m_fnd_scenes_buf_alloc                   0x0002e76f   Thumb Code    14  m_fnd_scenes.o(.text)
    get_present_scene                        0x0002e77d   Thumb Code    22  m_fnd_scenes.o(.text)
    .text                                    0x0002e7a8   Section        0  mm_vendors.o(.text)
    mm_vendors_send_status                   0x0002e809   Thumb Code   220  mm_vendors.o(.text)
    mm_vendors_cb_publish_param              0x0002e8e5   Thumb Code     2  mm_vendors.o(.text)
    mm_vendor_cb_tmr_publi                   0x0002e8e7   Thumb Code    28  mm_vendors.o(.text)
    mm_vendors_cb_rx                         0x0002e903   Thumb Code    90  mm_vendors.o(.text)
    mm_vendors_cb_opcode_check               0x0002e96b   Thumb Code    60  mm_vendors.o(.text)
    mm_vendors_cb_set                        0x0002ea9b   Thumb Code    14  mm_vendors.o(.text)
    mm_vendors_publish                       0x0002ecdb   Thumb Code    22  mm_vendors.o(.text)
    mm_vendors_check_status_rsp              0x0002ecf1   Thumb Code    32  mm_vendors.o(.text)
    mm_vendors_handler_set                   0x0002ed11   Thumb Code   220  mm_vendors.o(.text)
    .text                                    0x0002ee30   Section        0  mm_gens.o(.text)
    .text                                    0x0002eed4   Section        0  mm_gens_oo.o(.text)
    mm_gens_oo_send_status                   0x0002eed5   Thumb Code   176  mm_gens_oo.o(.text)
    mm_gens_oo_cb_tmr_publi                  0x0002ef85   Thumb Code    28  mm_gens_oo.o(.text)
    mm_gens_oo_cb_rx                         0x0002efa1   Thumb Code    32  mm_gens_oo.o(.text)
    mm_gens_oo_cb_opcode_check               0x0002efc1   Thumb Code    30  mm_gens_oo.o(.text)
    mm_gens_oo_cb_publish_param              0x0002efdf   Thumb Code     8  mm_gens_oo.o(.text)
    mm_gens_oo_cb_set                        0x0002efe7   Thumb Code    54  mm_gens_oo.o(.text)
    mm_gens_oo_publish                       0x0002f167   Thumb Code    14  mm_gens_oo.o(.text)
    mm_gens_oo_check_status_rsp              0x0002f175   Thumb Code    26  mm_gens_oo.o(.text)
    mm_gens_oo_handler_set                   0x0002f18f   Thumb Code   186  mm_gens_oo.o(.text)
    .text                                    0x0002f328   Section        0  mm_lights.o(.text)
    mm_lights_register_ln                    0x0002f329   Thumb Code   198  mm_lights.o(.text)
    mm_lights_register_ctl                   0x0002f3ef   Thumb Code   242  mm_lights.o(.text)
    mm_lights_register_hsl                   0x0002f4e1   Thumb Code   302  mm_lights.o(.text)
    mm_lights_register_ctl_hsl               0x0002f60f   Thumb Code   642  mm_lights.o(.text)
    .text                                    0x0002f960   Section        0  mm_lights_ctl.o(.text)
    mm_lights_ctl_send_status                0x0002f961   Thumb Code   328  mm_lights_ctl.o(.text)
    mm_lights_ctl_send_status_temp           0x0002faa9   Thumb Code   290  mm_lights_ctl.o(.text)
    mm_lights_ctl_send_status_dflt           0x0002fbcb   Thumb Code    94  mm_lights_ctl.o(.text)
    mm_lights_ctl_send_status_temp_range     0x0002fc29   Thumb Code    82  mm_lights_ctl.o(.text)
    mm_lights_ctl_check_status_rsp           0x0002fc7b   Thumb Code    52  mm_lights_ctl.o(.text)
    mm_lights_ctl_handler_set                0x0002fcaf   Thumb Code   438  mm_lights_ctl.o(.text)
    mm_lights_ctl_handler_set_temp           0x0002fe65   Thumb Code   304  mm_lights_ctl.o(.text)
    mm_lights_ctl_cb_tmr_publi               0x0002ff95   Thumb Code    40  mm_lights_ctl.o(.text)
    mm_lights_ctl_cb_rx                      0x0002ffbd   Thumb Code   172  mm_lights_ctl.o(.text)
    mm_lights_ctl_cb_opcode_check            0x00030069   Thumb Code   110  mm_lights_ctl.o(.text)
    mm_lights_ctl_cb_publish_param           0x000300d7   Thumb Code     8  mm_lights_ctl.o(.text)
    mm_lights_ctl_cb_set                     0x000300df   Thumb Code    88  mm_lights_ctl.o(.text)
    mm_lights_ctl_publish                    0x00030569   Thumb Code    18  mm_lights_ctl.o(.text)
    mm_lights_ctl_publish_temp               0x0003057b   Thumb Code    18  mm_lights_ctl.o(.text)
    mm_lights_ctl_handler_set_dflt           0x0003058d   Thumb Code   108  mm_lights_ctl.o(.text)
    mm_lights_ctl_handler_set_temp_range     0x000305f9   Thumb Code   112  mm_lights_ctl.o(.text)
    .text                                    0x0003067c   Section        0  mm_lights_hsl.o(.text)
    mm_lights_hsl_send_status                0x0003067d   Thumb Code   398  mm_lights_hsl.o(.text)
    mm_lights_hsl_send_status_hue            0x0003080b   Thumb Code   196  mm_lights_hsl.o(.text)
    mm_lights_hsl_send_status_sat            0x000308cf   Thumb Code   196  mm_lights_hsl.o(.text)
    mm_lights_hsl_send_status_dflt           0x00030993   Thumb Code    98  mm_lights_hsl.o(.text)
    mm_lights_hsl_send_status_range          0x000309f5   Thumb Code   102  mm_lights_hsl.o(.text)
    mm_lights_hsl_check_status_rsp_hue_sat   0x00030a5b   Thumb Code    76  mm_lights_hsl.o(.text)
    mm_lights_hsl_handler_set                0x00030aa7   Thumb Code   458  mm_lights_hsl.o(.text)
    mm_lights_hsl_cb_tmr_publi               0x00030c71   Thumb Code    42  mm_lights_hsl.o(.text)
    mm_lights_hsl_cb_rx                      0x00030c9b   Thumb Code   234  mm_lights_hsl.o(.text)
    mm_lights_hsl_cb_opcode_check            0x00030d85   Thumb Code   158  mm_lights_hsl.o(.text)
    mm_lights_hsl_cb_publish_param           0x00030e23   Thumb Code     8  mm_lights_hsl.o(.text)
    mm_lights_hsl_cb_set                     0x00030e2b   Thumb Code    46  mm_lights_hsl.o(.text)
    mm_lights_hsl_cb_set_hue                 0x00030e59   Thumb Code    74  mm_lights_hsl.o(.text)
    mm_lights_hsl_cb_set_sat                 0x00030ea3   Thumb Code    74  mm_lights_hsl.o(.text)
    mm_lights_hsl_publish                    0x0003129f   Thumb Code    20  mm_lights_hsl.o(.text)
    mm_lights_hsl_publish_hue_sat            0x000312b3   Thumb Code    36  mm_lights_hsl.o(.text)
    mm_lights_hsl_check_status_rsp           0x000312d7   Thumb Code    40  mm_lights_hsl.o(.text)
    mm_lights_hsl_handler_set_hue            0x000312ff   Thumb Code   180  mm_lights_hsl.o(.text)
    mm_lights_hsl_handler_set_sat            0x000313b3   Thumb Code   172  mm_lights_hsl.o(.text)
    mm_lights_hsl_handler_set_dflt           0x0003145f   Thumb Code   114  mm_lights_hsl.o(.text)
    mm_lights_hsl_handler_set_range          0x000314d1   Thumb Code   170  mm_lights_hsl.o(.text)
    mm_lights_hsl_register_hsl               0x0003157b   Thumb Code   104  mm_lights_hsl.o(.text)
    mm_lights_hsl_register_hsls              0x000315e3   Thumb Code    92  mm_lights_hsl.o(.text)
    mm_lights_hsl_register_hslh              0x0003163f   Thumb Code   120  mm_lights_hsl.o(.text)
    mm_lights_hsl_register_hslsat            0x000316b7   Thumb Code   120  mm_lights_hsl.o(.text)
    .text                                    0x000317b8   Section        0  mm_lights_ln.o(.text)
    mm_lights_ln_send_status                 0x000317b9   Thumb Code   294  mm_lights_ln.o(.text)
    mm_lights_ln_send_status_dflt            0x000318df   Thumb Code    70  mm_lights_ln.o(.text)
    mm_lights_ln_send_status_range           0x00031925   Thumb Code    80  mm_lights_ln.o(.text)
    mm_lights_ln_handler_set                 0x00031975   Thumb Code   258  mm_lights_ln.o(.text)
    mm_lights_ln_cb_tmr_publi                0x00031a77   Thumb Code    28  mm_lights_ln.o(.text)
    mm_lights_ln_cb_rx                       0x00031a93   Thumb Code   296  mm_lights_ln.o(.text)
    mm_lights_ln_cb_opcode_check             0x00031bbb   Thumb Code   328  mm_lights_ln.o(.text)
    mm_lights_ln_cb_publish_param            0x00031d03   Thumb Code     8  mm_lights_ln.o(.text)
    mm_lights_ln_cb_set                      0x00031d0b   Thumb Code   114  mm_lights_ln.o(.text)
    mm_lights_ln_publish                     0x00032149   Thumb Code    20  mm_lights_ln.o(.text)
    mm_lights_ln_check_status_rsp            0x0003215d   Thumb Code    32  mm_lights_ln.o(.text)
    mm_lights_ln_handler_set_range           0x0003217d   Thumb Code   104  mm_lights_ln.o(.text)
    .text                                    0x000321e8   Section        0  aes.o(.text)
    .text                                    0x00032e80   Section        0  ais.o(.text)
    gmas_init                                0x00032e81   Thumb Code   148  ais.o(.text)
    gmas_destroy                             0x00032f15   Thumb Code    28  ais.o(.text)
    gmas_create                              0x00032f31   Thumb Code    30  ais.o(.text)
    gmas_cleanup                             0x00032f4f   Thumb Code    30  ais.o(.text)
    .text                                    0x00033038   Section        0  ais_task.o(.text)
    gma_data_send_handler                    0x00033039   Thumb Code    62  ais_task.o(.text)
    gattc_att_info_req_ind_handler           0x00033077   Thumb Code    74  ais_task.o(.text)
    gattc_write_req_ind_handler              0x000330c1   Thumb Code   208  ais_task.o(.text)
    gattc_read_req_ind_handler               0x00033191   Thumb Code   128  ais_task.o(.text)
    gattc_cmp_evt_handler                    0x00033211   Thumb Code    34  ais_task.o(.text)
    .text                                    0x00033264   Section        0  app_ais.o(.text)
    app_gma_msg_dflt_handler                 0x0003328b   Thumb Code     4  app_ais.o(.text)
    app_gma_data_receive_handler             0x0003328f   Thumb Code    16  app_ais.o(.text)
    .text                                    0x000332dc   Section        0  gma.o(.text)
    .text                                    0x00034f1c   Section        0  sha256.o(.text)
    .text                                    0x000351cc   Section        0  rf_pn9_test.o(.text)
    .text                                    0x000354c8   Section        0  lld_adv_test.o(.text)
    lld_adv_test_sched                       0x000354c9   Thumb Code   248  lld_adv_test.o(.text)
    lld_adv_test_start_cb                    0x000355c1   Thumb Code    62  lld_adv_test.o(.text)
    lld_adv_test_cancel_cb                   0x000355ff   Thumb Code    14  lld_adv_test.o(.text)
    lld_adv_test_scan_sched                  0x0003560d   Thumb Code   102  lld_adv_test.o(.text)
    lld_adv_test_scan_start_cb               0x00035673   Thumb Code    78  lld_adv_test.o(.text)
    lld_adv_test_scan_cancel_cb              0x000356c1   Thumb Code     4  lld_adv_test.o(.text)
    .text                                    0x00036304   Section        0  mal.o(.text)
    mal_init                                 0x00036305   Thumb Code   136  mal.o(.text)
    mal_destroy                              0x0003638d   Thumb Code    78  mal.o(.text)
    mal_create                               0x000363db   Thumb Code    10  mal.o(.text)
    mal_cleanup                              0x000363e5   Thumb Code    12  mal.o(.text)
    .text                                    0x00036474   Section        0  mal_timer.o(.text)
    mal_timer_get_cur_time_loc               0x00036475   Thumb Code    42  mal_timer.o(.text)
    mal_timer_update_clock                   0x0003649f   Thumb Code    44  mal_timer.o(.text)
    .text                                    0x000365d8   Section        0  mesh_tb.o(.text)
    .text                                    0x00036648   Section        0  mesh_tb_buf.o(.text)
    mesh_tb_buf_copy_data                    0x00036649   Thumb Code    92  mesh_tb_buf.o(.text)
    .text                                    0x00036cb8   Section        0  mesh_tb_timer.o(.text)
    mesh_tb_timer_prog                       0x00036ce3   Thumb Code    54  mesh_tb_timer.o(.text)
    mesh_tb_timer_insert                     0x00036ddb   Thumb Code    84  mesh_tb_timer.o(.text)
    mesh_tb_timer_remove                     0x00036e2f   Thumb Code    36  mesh_tb_timer.o(.text)
    mesh_tb_timer_get_duration               0x00036e53   Thumb Code    20  mesh_tb_timer.o(.text)
    .text                                    0x00036e70   Section        0  m_bcn.o(.text)
    m_bcn_buf_init                           0x00036e71   Thumb Code    32  m_bcn.o(.text)
    m_bcn_cmac_ready_cb                      0x00036e91   Thumb Code   106  m_bcn.o(.text)
    m_bcn_send                               0x00036efb   Thumb Code   100  m_bcn.o(.text)
    m_bcn_proxy_tx_check                     0x00036f5f   Thumb Code   226  m_bcn.o(.text)
    m_bcn_cmac_finished_cb                   0x00037057   Thumb Code   290  m_bcn.o(.text)
    m_bcn_prep_secure_bcn                    0x00037179   Thumb Code   140  m_bcn.o(.text)
    m_bcn_adv_tx_check                       0x00037205   Thumb Code   406  m_bcn.o(.text)
    m_bcn_cb_rx                              0x0003739b   Thumb Code   114  m_bcn.o(.text)
    m_bcn_cb_sent                            0x0003740d   Thumb Code    52  m_bcn.o(.text)
    m_bcn_cb_opened                          0x00037441   Thumb Code   106  m_bcn.o(.text)
    m_bcn_cb_closed                          0x000374ab   Thumb Code    54  m_bcn.o(.text)
    m_bcn_cb_timer_obs_expired               0x000374e1   Thumb Code    50  m_bcn.o(.text)
    m_bcn_cb_timer_bcn_expired               0x00037513   Thumb Code   128  m_bcn.o(.text)
    m_bcn_buf_rts_set                        0x0003788f   Thumb Code    14  m_bcn.o(.text)
    m_bcn_insert_encrypt_queue               0x0003789d   Thumb Code    36  m_bcn.o(.text)
    .text                                    0x000378d4   Section        0  m_bearer.o(.text)
    m_bearer_send                            0x000378d5   Thumb Code   178  m_bearer.o(.text)
    m_bearer_update                          0x00037987   Thumb Code    80  m_bearer.o(.text)
    m_bearer_send_continue                   0x000379d7   Thumb Code   152  m_bearer.o(.text)
    .text                                    0x00037f04   Section        0  m_fnd.o(.text)
    .text                                    0x00037f54   Section        0  m_fnd_hlths.o(.text)
    m_fnd_hlths_send                         0x00037f55   Thumb Code    36  m_fnd_hlths.o(.text)
    m_fnd_hlths_send_status                  0x00037f79   Thumb Code   118  m_fnd_hlths.o(.text)
    m_fnd_hlths_process                      0x00037fef   Thumb Code   200  m_fnd_hlths.o(.text)
    m_fnd_hlths_process_next                 0x000380b7   Thumb Code    28  m_fnd_hlths.o(.text)
    m_fnd_hlths_send_attention_status        0x000380d3   Thumb Code    56  m_fnd_hlths.o(.text)
    m_fnd_hlths_cb_rx                        0x0003810b   Thumb Code    70  m_fnd_hlths.o(.text)
    m_fnd_hlths_cb_opcode_check              0x00038151   Thumb Code    38  m_fnd_hlths.o(.text)
    m_fnd_hlths_cb_sent                      0x00038177   Thumb Code    10  m_fnd_hlths.o(.text)
    m_fnd_hlths_cb_publish_param             0x00038181   Thumb Code    20  m_fnd_hlths.o(.text)
    m_fnd_hlths_buf_alloc                    0x00038201   Thumb Code    14  m_fnd_hlths.o(.text)
    m_fnd_hlths_handler_period               0x0003820f   Thumb Code   114  m_fnd_hlths.o(.text)
    .text                                    0x000382f0   Section        0  m_lay.o(.text)
    .text                                    0x00038460   Section        0  m_lay_access.o(.text)
    m_lay_access_opcode_set                  0x00038461   Thumb Code    76  m_lay_access.o(.text)
    m_lay_access_opcode_get                  0x000384ad   Thumb Code    82  m_lay_access.o(.text)
    m_lay_access_retx_timer_cb               0x000384ff   Thumb Code   168  m_lay_access.o(.text)
    m_lay_access_sent                        0x000385a7   Thumb Code   142  m_lay_access.o(.text)
    m_lay_access_model_check                 0x00038635   Thumb Code   264  m_lay_access.o(.text)
    m_lay_access_rx                          0x0003873d   Thumb Code    78  m_lay_access.o(.text)
    m_lay_access_check_local                 0x0003878b   Thumb Code   104  m_lay_access.o(.text)
    .text                                    0x00038ea8   Section        0  m_lay_proxy.o(.text)
    m_lay_proxy_addr_in_filt_list            0x00038ea9   Thumb Code    94  m_lay_proxy.o(.text)
    m_lay_proxy_filt_addr_add                0x00038f07   Thumb Code   118  m_lay_proxy.o(.text)
    m_lay_proxy_filt_addr_rem                0x00038f7d   Thumb Code    92  m_lay_proxy.o(.text)
    m_lay_proxy_bearer_started_cb            0x00038fd9   Thumb Code   108  m_lay_proxy.o(.text)
    m_lay_proxy_bearer_start                 0x00039045   Thumb Code   220  m_lay_proxy.o(.text)
    m_lay_proxy_aes_finished                 0x00039121   Thumb Code    72  m_lay_proxy.o(.text)
    m_lay_proxy_aes_ready                    0x00039169   Thumb Code    44  m_lay_proxy.o(.text)
    m_lay_proxy_rand_finished                0x00039195   Thumb Code    80  m_lay_proxy.o(.text)
    m_lay_proxy_adv_data_set                 0x000391e5   Thumb Code   400  m_lay_proxy.o(.text)
    m_lay_proxy_bearer_stopped_cb            0x00039477   Thumb Code    78  m_lay_proxy.o(.text)
    m_lay_proxy_filt_status_send             0x000394c5   Thumb Code   172  m_lay_proxy.o(.text)
    m_lay_proxy_check_relay                  0x00039571   Thumb Code   100  m_lay_proxy.o(.text)
    m_lay_proxy_prot_rx                      0x000395d5   Thumb Code   182  m_lay_proxy.o(.text)
    m_lay_proxy_sent                         0x0003968b   Thumb Code    34  m_lay_proxy.o(.text)
    m_lay_proxy_rx                           0x000396ad   Thumb Code   412  m_lay_proxy.o(.text)
    m_lay_proxy_bearer_opened_cb             0x00039849   Thumb Code    90  m_lay_proxy.o(.text)
    m_lay_proxy_bearer_closed_cb             0x000398a3   Thumb Code    88  m_lay_proxy.o(.text)
    m_lay_proxy_bearer_adv_timer_handler     0x000398fb   Thumb Code    22  m_lay_proxy.o(.text)
    m_lay_proxy_bearer_adv_update_timer_handler 0x00039911   Thumb Code    46  m_lay_proxy.o(.text)
    m_lay_proxy_con_create                   0x000399e9   Thumb Code    80  m_lay_proxy.o(.text)
    m_lay_proxy_bearer_stop                  0x00039a39   Thumb Code    28  m_lay_proxy.o(.text)
    .text                                    0x00039a90   Section        0  m_prov.o(.text)
    m_prov_pdu_send                          0x00039a91   Thumb Code   228  m_prov.o(.text)
    m_prov_pdu_handle                        0x00039b75   Thumb Code   134  m_prov.o(.text)
    m_prov_pdu_invite_handler                0x00039bfb   Thumb Code   194  m_prov.o(.text)
    m_prov_pdu_capabilities_handler          0x00039cbd   Thumb Code     6  m_prov.o(.text)
    m_prov_pdu_start_handler                 0x00039cc3   Thumb Code   276  m_prov.o(.text)
    m_prov_error_handle                      0x00039dd7   Thumb Code   834  m_prov.o(.text)
    m_prov_k1_ready_cb                       0x0003a119   Thumb Code   136  m_prov.o(.text)
    m_prov_psalt_finished_cb                 0x0003a1a1   Thumb Code    88  m_prov.o(.text)
    m_prov_s1_ready_cb                       0x0003a1f9   Thumb Code    54  m_prov.o(.text)
    m_prov_cmac_finished_cb                  0x0003a22f   Thumb Code   166  m_prov.o(.text)
    m_prov_cmac_ready_cb                     0x0003a2d5   Thumb Code    48  m_prov.o(.text)
    m_prov_k1_finished_cb                    0x0003a305   Thumb Code   214  m_prov.o(.text)
    m_prov_rand_finished_cb                  0x0003a3db   Thumb Code   112  m_prov.o(.text)
    m_prov_ecdh_secret_res_cb                0x0003a44b   Thumb Code   118  m_prov.o(.text)
    m_prov_cfm_salt_finished_cb              0x0003a4c1   Thumb Code   622  m_prov.o(.text)
    m_prov_pdu_pub_key_handler               0x0003a72f   Thumb Code   170  m_prov.o(.text)
    m_prov_pdu_input_cmp_handler             0x0003a7d9   Thumb Code     4  m_prov.o(.text)
    m_prov_pdu_cfm_handler                   0x0003a7dd   Thumb Code    92  m_prov.o(.text)
    m_prov_pdu_random_handler                0x0003a839   Thumb Code    98  m_prov.o(.text)
    m_prov_net_key_added_cb                  0x0003a89b   Thumb Code    88  m_prov.o(.text)
    m_prov_ccm_finished_cb                   0x0003a8f3   Thumb Code   170  m_prov.o(.text)
    m_prov_ccm_ready_cb                      0x0003a99d   Thumb Code    94  m_prov.o(.text)
    m_prov_pdu_data_handler                  0x0003a9fb   Thumb Code    80  m_prov.o(.text)
    m_prov_pdu_cmp_handler                   0x0003aa4b   Thumb Code     4  m_prov.o(.text)
    m_prov_pdu_failed_handler                0x0003aa4f   Thumb Code    42  m_prov.o(.text)
    m_prov_pub_key_res_cb                    0x0003aa79   Thumb Code   772  m_prov.o(.text)
    m_prov_link_timeout_cb                   0x0003ae7f   Thumb Code    82  m_prov.o(.text)
    m_prov_trans_timeout_cb                  0x0003aed1   Thumb Code    58  m_prov.o(.text)
    m_prov_param_req                         0x0003af0b   Thumb Code     8  m_prov.o(.text)
    m_prov_ecdh_regenerate_timeout_cb        0x0003af93   Thumb Code    38  m_prov.o(.text)
    m_prov_state_send                        0x0003b3ab   Thumb Code    34  m_prov.o(.text)
    m_prov_pdu_invite_send                   0x0003b3cd   Thumb Code    92  m_prov.o(.text)
    .text                                    0x0003b4bc   Section        0  m_prov_bearer.o(.text)
    m_prov_bearer_rx_cb                      0x0003b4bd   Thumb Code    82  m_prov_bearer.o(.text)
    m_prov_bearer_sent_cb                    0x0003b50f   Thumb Code    26  m_prov_bearer.o(.text)
    m_prov_bearer_opened_cb                  0x0003b529   Thumb Code    34  m_prov_bearer.o(.text)
    m_prov_bearer_closed_cb                  0x0003b54b   Thumb Code    34  m_prov_bearer.o(.text)
    m_prov_bearer_gatt_started               0x0003b56d   Thumb Code    20  m_prov_bearer.o(.text)
    m_prov_bearer_gatt_stopped               0x0003b581   Thumb Code     2  m_prov_bearer.o(.text)
    .text                                    0x0003b8e0   Section        0  m_tb.o(.text)
    .text                                    0x0003b970   Section        0  m_tb_key.o(.text)
    m_tb_key_create_start                    0x0003b971   Thumb Code    26  m_tb_key.o(.text)
    m_tb_key_nid_tbl_add                     0x0003b98b   Thumb Code    60  m_tb_key.o(.text)
    m_tb_key_nid_tbl_del                     0x0003b9c7   Thumb Code    90  m_tb_key.o(.text)
    m_tb_key_aid_tbl_add                     0x0003ba21   Thumb Code    86  m_tb_key.o(.text)
    m_tb_key_aid_tbl_del                     0x0003ba77   Thumb Code   106  m_tb_key.o(.text)
    m_tb_key_k1_ready_cb                     0x0003bae1   Thumb Code    62  m_tb_key.o(.text)
    m_tb_key_k2_ready_cb                     0x0003bb1f   Thumb Code    32  m_tb_key.o(.text)
    m_tb_key_k3_ready_cb                     0x0003bb3f   Thumb Code    20  m_tb_key.o(.text)
    m_tb_key_k4_ready_cb                     0x0003bb53   Thumb Code    20  m_tb_key.o(.text)
    m_tb_key_finished_cb                     0x0003bb67   Thumb Code   464  m_tb_key.o(.text)
    m_tb_key_check_iv                        0x0003d0d5   Thumb Code   248  m_tb_key.o(.text)
    .text                                    0x0003d1cc   Section        0  m_tb_mio.o(.text)
    m_tb_mio_subs_find_addr                  0x0003d1cd   Thumb Code   104  m_tb_mio.o(.text)
    m_tb_mio_find_label_uuid                 0x0003d235   Thumb Code    60  m_tb_mio.o(.text)
    m_tb_mio_add_virt_addr                   0x0003d271   Thumb Code   128  m_tb_mio.o(.text)
    m_tb_mio_rem_virt_addr                   0x0003d2f1   Thumb Code    46  m_tb_mio.o(.text)
    m_tb_mio_subs_find_va_lid                0x0003dbcb   Thumb Code    44  m_tb_mio.o(.text)
    m_tb_mio_convert_period                  0x0003dbf7   Thumb Code    46  m_tb_mio.o(.text)
    .text                                    0x0003dc30   Section        0  m_tb_store_nvds.o(.text)
    m_tb_store_update_tag_app_key            0x0003dc31   Thumb Code   160  m_tb_store_nvds.o(.text)
    m_tb_store_update                        0x0003de67   Thumb Code   126  m_tb_store_nvds.o(.text)
    m_tb_store_cb_timer_upd                  0x0003df0f   Thumb Code    30  m_tb_store_nvds.o(.text)
    m_tb_store_cb_appkey_added               0x0003df2d   Thumb Code    94  m_tb_store_nvds.o(.text)
    m_tb_store_load_states                   0x0003df95   Thumb Code   306  m_tb_store_nvds.o(.text)
    m_tb_store_load_fsm                      0x0003e0c7   Thumb Code   236  m_tb_store_nvds.o(.text)
    m_tb_store_cb_netkey_added               0x0003e1b3   Thumb Code    78  m_tb_store_nvds.o(.text)
    m_tb_store_update_tag_state              0x0003e307   Thumb Code   152  m_tb_store_nvds.o(.text)
    m_tb_store_update_tag_net_key            0x0003e39f   Thumb Code   160  m_tb_store_nvds.o(.text)
    m_tb_store_update_tag_publi_param        0x0003e43f   Thumb Code   220  m_tb_store_nvds.o(.text)
    m_tb_store_update_tag_subs_list          0x0003e51b   Thumb Code   136  m_tb_store_nvds.o(.text)
    m_tb_store_update_tag_binding            0x0003e5a3   Thumb Code   108  m_tb_store_nvds.o(.text)
    m_tb_store_load_binding                  0x0003e60f   Thumb Code   156  m_tb_store_nvds.o(.text)
    m_tb_store_load_subs_list                0x0003e6ab   Thumb Code   170  m_tb_store_nvds.o(.text)
    m_tb_store_load_publi_param              0x0003e755   Thumb Code   154  m_tb_store_nvds.o(.text)
    m_tb_store_load_app_key                  0x0003e7ef   Thumb Code    80  m_tb_store_nvds.o(.text)
    .text                                    0x0003e854   Section        0  m_tb_state.o(.text)
    m_tb_state_cb_timer_attention            0x0003e855   Thumb Code    44  m_tb_state.o(.text)
    .text                                    0x0003ee98   Section        0  mm_tb.o(.text)
    .text                                    0x0003efac   Section        0  mm_tb_bind.o(.text)
    mm_tb_bind_trans_end                     0x0003efad   Thumb Code    80  mm_tb_bind.o(.text)
    mm_tb_bind_cb_tmr                        0x0003effd   Thumb Code    70  mm_tb_bind.o(.text)
    mm_tb_bind_cb_djob                       0x0003f043   Thumb Code    82  mm_tb_bind.o(.text)
    mm_tb_bind_get_grp_info                  0x0003f6c7   Thumb Code    30  mm_tb_bind.o(.text)
    mm_tb_bind_trans_init                    0x0003f6e5   Thumb Code   120  mm_tb_bind.o(.text)
    mm_tb_bind_trans_delay_end               0x0003f75d   Thumb Code    26  mm_tb_bind.o(.text)
    .text                                    0x0003f790   Section        0  mm_tb_replay.o(.text)
    mm_tb_replay_cb_tmr                      0x0003f791   Thumb Code    44  mm_tb_replay.o(.text)
    mm_tb_replay_set_delay                   0x0003f7bd   Thumb Code    56  mm_tb_replay.o(.text)
    mm_tb_replay_prog                        0x0003f8a5   Thumb Code    24  mm_tb_replay.o(.text)
    mm_tb_replay_delay                       0x0003f8bd   Thumb Code    80  mm_tb_replay.o(.text)
    .text                                    0x0003f914   Section        0  mm_route.o(.text)
    mm_route_cb_djob                         0x0003f915   Thumb Code   126  mm_route.o(.text)
    mm_route_cb_rx                           0x0003f993   Thumb Code    76  mm_route.o(.text)
    mm_route_cb_sent                         0x0003f9df   Thumb Code    20  mm_route.o(.text)
    mm_route_cb_opcode_check                 0x0003f9f3   Thumb Code    50  mm_route.o(.text)
    mm_route_cb_publish_param                0x0003fa25   Thumb Code    40  mm_route.o(.text)
    .text                                    0x0003fb24   Section        0  mm_tb_state.o(.text)
    .text                                    0x0003fccc   Section        0  mal_adv.o(.text)
    mal_aes_rand_res                         0x0003fccd   Thumb Code    48  mal_adv.o(.text)
    mal_adv_send                             0x0003fcfd   Thumb Code    90  mal_adv.o(.text)
    mal_adv_scan_start                       0x0003fd57   Thumb Code    80  mal_adv.o(.text)
    mal_adv_scan_stop                        0x0003fda7   Thumb Code    38  mal_adv.o(.text)
    .text                                    0x0003ff48   Section        0  mal_con.o(.text)
    mal_con_handle_rx_pkt                    0x0003ff49   Thumb Code   368  mal_con.o(.text)
    mal_con_pdu_send_cont                    0x000400b9   Thumb Code   232  mal_con.o(.text)
    mal_con_start                            0x000401a1   Thumb Code   342  mal_con.o(.text)
    mal_con_stop                             0x000402f7   Thumb Code   110  mal_con.o(.text)
    mal_con_close                            0x00040365   Thumb Code    56  mal_con.o(.text)
    mal_con_send                             0x0004039d   Thumb Code   182  mal_con.o(.text)
    mal_con_type_init                        0x00040453   Thumb Code    62  mal_con.o(.text)
    mal_con_disconnect                       0x0004090f   Thumb Code    34  mal_con.o(.text)
    .text                                    0x0004093c   Section        0  mal_djob.o(.text)
    mal_djob_evt_handler                     0x0004093d   Thumb Code    72  mal_djob.o(.text)
    .text                                    0x000409e4   Section        0  mal_sec.o(.text)
    .text                                    0x00040ba0   Section        0  mal_task.o(.text)
    ke_msg_default_handler                   0x00040ba1   Thumb Code    60  mal_task.o(.text)
    gapm_cmp_evt_handler                     0x00040bdd   Thumb Code    50  mal_task.o(.text)
    gapc_cmp_evt_handler                     0x00040c0f   Thumb Code     4  mal_task.o(.text)
    gattc_cmp_evt_handler                    0x00040c13   Thumb Code    16  mal_task.o(.text)
    gattc_write_req_ind_handler              0x00040c23   Thumb Code    16  mal_task.o(.text)
    gattc_read_req_ind_handler               0x00040c33   Thumb Code    18  mal_task.o(.text)
    mal_int_message_handler                  0x00040c73   Thumb Code   148  mal_task.o(.text)
    .text                                    0x00040d1c   Section        0  mesh_tb_sec.o(.text)
    mesh_tb_sec_ready_rand_cb                0x00040d1d   Thumb Code     4  mesh_tb_sec.o(.text)
    mesh_tb_sec_aes_res_cb                   0x00040d21   Thumb Code    12  mesh_tb_sec.o(.text)
    mesh_tb_sec_aes_ccm_cb                   0x00040d2d   Thumb Code    16  mesh_tb_sec.o(.text)
    mesh_tb_sec_execute                      0x00040d3d   Thumb Code   434  mesh_tb_sec.o(.text)
    mesh_tb_sec_func_end_handler             0x00040eef   Thumb Code    48  mesh_tb_sec.o(.text)
    mesh_tb_sec_start                        0x00040f1f   Thumb Code    70  mesh_tb_sec.o(.text)
    .text                                    0x00041068   Section        0  mesh.o(.text)
    .text                                    0x00041108   Section        0  m_bearer_adv.o(.text)
    m_bearer_adv_sent                        0x00041109   Thumb Code    58  m_bearer_adv.o(.text)
    m_bearer_adv_cb_timer                    0x00041143   Thumb Code    62  m_bearer_adv.o(.text)
    m_bearer_adv_rx                          0x00041181   Thumb Code    88  m_bearer_adv.o(.text)
    m_bearer_adv_stopped                     0x000411d9   Thumb Code    68  m_bearer_adv.o(.text)
    m_bearer_adv_started                     0x000412cb   Thumb Code    84  m_bearer_adv.o(.text)
    .text                                    0x00041528   Section        0  m_bearer_gatt.o(.text)
    m_bearer_gatt_started                    0x00041529   Thumb Code    32  m_bearer_gatt.o(.text)
    m_bearer_gatt_stopped                    0x00041549   Thumb Code    28  m_bearer_gatt.o(.text)
    m_bearer_gatt_created                    0x00041565   Thumb Code    86  m_bearer_gatt.o(.text)
    m_bearer_gatt_closed                     0x000415bb   Thumb Code    38  m_bearer_gatt.o(.text)
    m_bearer_gatt_rx                         0x000415e1   Thumb Code    86  m_bearer_gatt.o(.text)
    m_bearer_gatt_sent                       0x00041637   Thumb Code    12  m_bearer_gatt.o(.text)
    .text                                    0x000418fc   Section        0  m_fnd_confs.o(.text)
    m_fnd_confs_send                         0x000418fd   Thumb Code    54  m_fnd_confs.o(.text)
    m_fnd_confs_send_model_subs_status       0x00041933   Thumb Code   112  m_fnd_confs.o(.text)
    m_fnd_confs_send_model_subs_list         0x000419a3   Thumb Code   148  m_fnd_confs.o(.text)
    m_fnd_confs_send_model_pub_status        0x00041a37   Thumb Code   228  m_fnd_confs.o(.text)
    m_fnd_confs_send_netkey_status           0x00041b1b   Thumb Code    68  m_fnd_confs.o(.text)
    m_fnd_confs_send_appkey_status           0x00041b5f   Thumb Code    72  m_fnd_confs.o(.text)
    m_fnd_confs_send_model_app_list          0x00041ba7   Thumb Code   148  m_fnd_confs.o(.text)
    m_fnd_confs_send_compo_data_status       0x00041c3b   Thumb Code    64  m_fnd_confs.o(.text)
    m_fnd_confs_send_hbeat_pub_status        0x00041c7b   Thumb Code   334  m_fnd_confs.o(.text)
    m_fnd_confs_send_hbeat_subs_status       0x00041dc9   Thumb Code   170  m_fnd_confs.o(.text)
    m_fnd_confs_cb_sec_cmac_ready            0x00041e73   Thumb Code    34  m_fnd_confs.o(.text)
    m_fnd_confs_cb_sec_cmac_pub_finished     0x00041e95   Thumb Code   282  m_fnd_confs.o(.text)
    m_fnd_confs_cb_sec_cmac_subs_finished    0x00041faf   Thumb Code   184  m_fnd_confs.o(.text)
    m_fnd_confs_cb_netkey_added              0x00042067   Thumb Code    32  m_fnd_confs.o(.text)
    m_fnd_confs_cb_appkey_added              0x00042087   Thumb Code    38  m_fnd_confs.o(.text)
    m_fnd_confs_cb_compo_data                0x000420ad   Thumb Code    30  m_fnd_confs.o(.text)
    m_fnd_confs_handler_model_subs           0x000420cb   Thumb Code   232  m_fnd_confs.o(.text)
    m_fnd_confs_handler_model_subs_vaddr     0x000421b3   Thumb Code   512  m_fnd_confs.o(.text)
    m_fnd_confs_handler_model_pub_set        0x000423b3   Thumb Code   250  m_fnd_confs.o(.text)
    m_fnd_confs_handler_netkey               0x000424ad   Thumb Code   222  m_fnd_confs.o(.text)
    m_fnd_confs_handler_appkey               0x0004258b   Thumb Code   178  m_fnd_confs.o(.text)
    m_fnd_confs_handler_model_app            0x0004263d   Thumb Code   664  m_fnd_confs.o(.text)
    m_fnd_confs_handler_compo_data_get       0x000428d5   Thumb Code   294  m_fnd_confs.o(.text)
    m_fnd_confs_process                      0x000429fb   Thumb Code   668  m_fnd_confs.o(.text)
    m_fnd_confs_cb_rx                        0x00042c97   Thumb Code   174  m_fnd_confs.o(.text)
    m_fnd_confs_cb_opcode_check              0x00042d45   Thumb Code    62  m_fnd_confs.o(.text)
    m_fnd_confs_cb_sent                      0x00042d83   Thumb Code    34  m_fnd_confs.o(.text)
    m_fnd_confs_get_air_status               0x00042ddd   Thumb Code    30  m_fnd_confs.o(.text)
    m_fnd_confs_buf_alloc                    0x00042dfb   Thumb Code    14  m_fnd_confs.o(.text)
    m_fnd_confs_get_ids_length               0x00042e09   Thumb Code    28  m_fnd_confs.o(.text)
    m_fnd_confs_process_next                 0x00042e25   Thumb Code    30  m_fnd_confs.o(.text)
    m_fnd_confs_send_appkey_list             0x00042e43   Thumb Code   104  m_fnd_confs.o(.text)
    m_fnd_confs_send_model_app_status        0x00042eab   Thumb Code   120  m_fnd_confs.o(.text)
    m_fnd_confs_send_key_refresh_phase_status 0x00042f23   Thumb Code    80  m_fnd_confs.o(.text)
    m_fnd_confs_handler_model_subs_get       0x00042f73   Thumb Code   112  m_fnd_confs.o(.text)
    m_fnd_confs_handler_model_subs_del_all   0x00042fe3   Thumb Code   132  m_fnd_confs.o(.text)
    m_fnd_confs_handler_model_pub_get        0x00043067   Thumb Code    96  m_fnd_confs.o(.text)
    m_fnd_confs_handler_default_ttl          0x000430c7   Thumb Code    74  m_fnd_confs.o(.text)
    m_fnd_confs_handler_beacon               0x00043111   Thumb Code    74  m_fnd_confs.o(.text)
    m_fnd_confs_handler_relay                0x0004315b   Thumb Code   388  m_fnd_confs.o(.text)
    m_fnd_confs_handler_gatt_proxy           0x000432df   Thumb Code    78  m_fnd_confs.o(.text)
    m_fnd_confs_handler_friend               0x0004332d   Thumb Code    74  m_fnd_confs.o(.text)
    m_fnd_confs_handler_net_tx               0x00043377   Thumb Code    70  m_fnd_confs.o(.text)
    m_fnd_confs_handler_node_id              0x000433bd   Thumb Code   112  m_fnd_confs.o(.text)
    m_fnd_confs_handler_node_reset           0x0004342d   Thumb Code    56  m_fnd_confs.o(.text)
    m_fnd_confs_send_node_id_status          0x00043465   Thumb Code    82  m_fnd_confs.o(.text)
    .text                                    0x000434dc   Section        0  m_lay_hb.o(.text)
    m_lay_hb_send                            0x000434dd   Thumb Code   178  m_lay_hb.o(.text)
    m_lay_hb_cb_timer_subs                   0x0004358f   Thumb Code    30  m_lay_hb.o(.text)
    m_lay_hb_cb_timer_pub                    0x000435ad   Thumb Code    38  m_lay_hb.o(.text)
    m_lay_hb_cb_state_updated                0x000435d3   Thumb Code    82  m_lay_hb.o(.text)
    m_lay_hb_cb_sent                         0x00043625   Thumb Code     8  m_lay_hb.o(.text)
    m_lay_hb_cb_rx                           0x0004362d   Thumb Code    74  m_lay_hb.o(.text)
    .text                                    0x000436d4   Section        0  m_lay_ltrans.o(.text)
    m_lay_ltrans_seg_finished                0x00043705   Thumb Code    72  m_lay_ltrans.o(.text)
    m_lay_ltrans_send_block_ack              0x0004374d   Thumb Code   218  m_lay_ltrans.o(.text)
    m_lay_ltrans_send_seg                    0x00043827   Thumb Code   420  m_lay_ltrans.o(.text)
    m_lay_ltrans_tx_handler                  0x000439cb   Thumb Code   242  m_lay_ltrans.o(.text)
    m_lay_ltrans_filt_add                    0x00043abd   Thumb Code   336  m_lay_ltrans.o(.text)
    m_lay_ltrans_seg_timer                   0x00043c0d   Thumb Code    54  m_lay_ltrans.o(.text)
    m_lay_ltrans_incomp_timer                0x00043c43   Thumb Code    52  m_lay_ltrans.o(.text)
    m_lay_ltrans_ack_timer                   0x00043c77   Thumb Code    32  m_lay_ltrans.o(.text)
    m_lay_ltrans_sent                        0x00043c97   Thumb Code    72  m_lay_ltrans.o(.text)
    m_lay_ltrans_send                        0x00043cdf   Thumb Code   302  m_lay_ltrans.o(.text)
    m_lay_ltrans_rx                          0x00043e0d   Thumb Code  1386  m_lay_ltrans.o(.text)
    .text                                    0x00044450   Section        0  m_lay_net.o(.text)
    m_lay_net_decrypt_err                    0x00044451   Thumb Code    70  m_lay_net.o(.text)
    m_lay_net_ccm_dec_finished_cb            0x00044497   Thumb Code   284  m_lay_net.o(.text)
    m_lay_net_ccm_dec_ready_cb               0x000445b3   Thumb Code   274  m_lay_net.o(.text)
    m_lay_net_is_in_cache                    0x000446c5   Thumb Code   178  m_lay_net.o(.text)
    m_lay_net_desobfusc_finished_cb          0x00044777   Thumb Code   402  m_lay_net.o(.text)
    m_lay_net_desobfusc_ready_cb             0x00044909   Thumb Code   138  m_lay_net.o(.text)
    m_lay_net_ccm_enc_ready_cb               0x00044993   Thumb Code   404  m_lay_net.o(.text)
    m_lay_net_check_encrypt_queue            0x00044b27   Thumb Code    42  m_lay_net.o(.text)
    m_lay_net_encrypt_err                    0x00044b51   Thumb Code    56  m_lay_net.o(.text)
    m_lay_net_obfusc_finished_cb             0x00044b89   Thumb Code   216  m_lay_net.o(.text)
    m_lay_net_obfusc_ready_cb                0x00044c61   Thumb Code   326  m_lay_net.o(.text)
    m_lay_net_ccm_enc_finished_cb            0x00044da7   Thumb Code    48  m_lay_net.o(.text)
    m_lay_net_send                           0x00044dd7   Thumb Code   226  m_lay_net.o(.text)
    m_lay_net_check_relay                    0x00044eb9   Thumb Code   124  m_lay_net.o(.text)
    m_lay_net_is_in_pre_filt                 0x00044f35   Thumb Code   156  m_lay_net.o(.text)
    m_lay_net_sent                           0x00044fd1   Thumb Code   190  m_lay_net.o(.text)
    m_lay_net_rx                             0x000450dd   Thumb Code    94  m_lay_net.o(.text)
    m_lay_net_opened                         0x0004513b   Thumb Code    56  m_lay_net.o(.text)
    m_lay_net_closed                         0x00045173   Thumb Code   298  m_lay_net.o(.text)
    m_lay_net_is_addr_valid                  0x000452eb   Thumb Code    34  m_lay_net.o(.text)
    m_lay_net_intf_type_to_idx               0x0004530d   Thumb Code    20  m_lay_net.o(.text)
    m_lay_net_add_header                     0x00045321   Thumb Code   100  m_lay_net.o(.text)
    .text                                    0x0004538c   Section        0  m_lay_utrans.o(.text)
    m_lay_utrans_ccm_dec_finished_cb         0x0004538d   Thumb Code    78  m_lay_utrans.o(.text)
    m_lay_utrans_ccm_dec_ready_cb            0x000453db   Thumb Code   370  m_lay_utrans.o(.text)
    m_lay_utrans_check_decrypt_queue         0x0004554d   Thumb Code    24  m_lay_utrans.o(.text)
    m_lay_utrans_ccm_enc_ready_cb            0x00045565   Thumb Code   424  m_lay_utrans.o(.text)
    m_lay_utrans_ccm_enc_finished_cb         0x0004570d   Thumb Code   452  m_lay_utrans.o(.text)
    m_lay_utrans_send                        0x000458d1   Thumb Code    56  m_lay_utrans.o(.text)
    m_lay_utrans_sent                        0x00045909   Thumb Code   104  m_lay_utrans.o(.text)
    m_lay_utrans_rx                          0x00045971   Thumb Code   138  m_lay_utrans.o(.text)
    m_lay_utrans_tx                          0x000459fb   Thumb Code   112  m_lay_utrans.o(.text)
    m_lay_utrans_decrypt_err                 0x00045ab3   Thumb Code   102  m_lay_utrans.o(.text)
    m_lay_utrans_intf_type_to_idx            0x00045b19   Thumb Code    20  m_lay_utrans.o(.text)
    .text                                    0x00045c38   Section        0  m_prov_adv_trans.o(.text)
    m_prov_adv_trans_tx_set                  0x00045c39   Thumb Code    52  m_prov_adv_trans.o(.text)
    m_prov_adv_trans_tx_cb                   0x00045c6d   Thumb Code   808  m_prov_adv_trans.o(.text)
    m_prov_adv_trans_rx_check                0x00045f95   Thumb Code    88  m_prov_adv_trans.o(.text)
    m_prov_adv_trans_fcs_compute             0x0004651f   Thumb Code    36  m_prov_adv_trans.o(.text)
    m_prov_adv_trans_create                  0x00046543   Thumb Code   108  m_prov_adv_trans.o(.text)
    .text                                    0x000465bc   Section        0  aes.o(.text)
    .text                                    0x000467ac   Section        0  aes_ccm.o(.text)
    aes_ccm_continue                         0x000467ad   Thumb Code   256  aes_ccm.o(.text)
    aes_ccm_process_e                        0x000468ad   Thumb Code   380  aes_ccm.o(.text)
    aes_ccm_xor_128_lsb                      0x00046a9f   Thumb Code    42  aes_ccm.o(.text)
    aes_ccm_xor_128_msb                      0x00046ac9   Thumb Code    34  aes_ccm.o(.text)
    .text                                    0x00046b24   Section        0  aes_cmac.o(.text)
    .text                                    0x00046ccc   Section        0  aes_k1.o(.text)
    aes_k1_continue                          0x00046ccd   Thumb Code    60  aes_k1.o(.text)
    .text                                    0x00046d3c   Section        0  aes_k2.o(.text)
    aes_k2_continue                          0x00046d3d   Thumb Code   250  aes_k2.o(.text)
    .text                                    0x00046e8c   Section        0  aes_k3.o(.text)
    aes_k3_continue                          0x00046e8d   Thumb Code    60  aes_k3.o(.text)
    .text                                    0x00046f28   Section        0  aes_k4.o(.text)
    aes_k4_continue                          0x00046f29   Thumb Code    70  aes_k4.o(.text)
    .text                                    0x00046fcc   Section        0  aes_s1.o(.text)
    .text                                    0x00047024   Section       24  llmul.o(.text)
    .text                                    0x0004703c   Section        0  vsnprintf.o(.text)
    .text                                    0x00047074   Section        0  __2sprintf.o(.text)
    .text                                    0x000470a0   Section        0  _printf_pad.o(.text)
    .text                                    0x000470ee   Section        0  _printf_str.o(.text)
    .text                                    0x00047148   Section        0  _printf_hex_int_ll_ptr.o(.text)
    _printf_hex_common                       0x00047149   Thumb Code     0  _printf_hex_int_ll_ptr.o(.text)
    .text                                    0x000471e0   Section        0  __printf_flags_ss_wp.o(.text)
    .text                                    0x00047368   Section      244  strcmp.o(.text)
    .text                                    0x0004745c   Section       32  uread4.o(.text)
    .text                                    0x0004747c   Section       32  uwrite4.o(.text)
    .text                                    0x0004749c   Section        0  _printf_truncate.o(.text)
    .text                                    0x000474c8   Section        0  _printf_intcommon.o(.text)
    .text                                    0x00047580   Section        0  _printf_dec.o(.text)
    .text                                    0x000475f4   Section        0  _printf_charcount.o(.text)
    .text                                    0x0004761c   Section        0  _printf_char_common.o(.text)
    _printf_input_char                       0x0004761d   Thumb Code    10  _printf_char_common.o(.text)
    .text                                    0x0004764c   Section        0  _sputc.o(.text)
    .text                                    0x00047656   Section        0  _snputc.o(.text)
    .text                                    0x00047670   Section        0  _printf_char.o(.text)
    .text                                    0x000476a0   Section        0  _printf_wctomb.o(.text)
    .text                                    0x00047764   Section        0  _printf_longlong_dec.o(.text)
    .text                                    0x000477dc   Section        0  _printf_oct_int_ll.o(.text)
    _printf_longlong_oct_internal            0x000477dd   Thumb Code     0  _printf_oct_int_ll.o(.text)
    .text                                    0x0004784c   Section      152  lludiv10.o(.text)
    .text                                    0x000478e4   Section        0  _printf_fp_dec.o(.text)
    _fp_digits                               0x000478e7   Thumb Code   410  _printf_fp_dec.o(.text)
    .text                                    0x00047d00   Section        0  _printf_fp_hex.o(.text)
    .text                                    0x00047fe0   Section        0  _printf_wchar.o(.text)
    .text                                    0x0004800e   Section        0  _wcrtomb.o(.text)
    .text                                    0x00048050   Section       44  rtudiv10.o(.text)
    .text                                    0x0004807c   Section       96  sys_stackheap_outer.o(.text)
    .text                                    0x000480dc   Section       20  rt_ctype_table.o(.text)
    .text                                    0x000480f0   Section       12  rt_locale_intlibspace.o(.text)
    .text                                    0x000480fc   Section        0  _printf_fp_infnan.o(.text)
    .text                                    0x00048184   Section        0  bigflt0.o(.text)
    .text                                    0x0004825c   Section        0  exit.o(.text)
    .text                                    0x0004826c   Section       12  libspace.o(.text)
    .text                                    0x00048278   Section        0  sys_exit.o(.text)
    .text                                    0x00048284   Section        4  use_no_semi.o(.text)
    .text                                    0x00048288   Section        0  indicate_semi.o(.text)
    CL$$btod_d2e                             0x00048288   Section       56  btod.o(CL$$btod_d2e)
    CL$$btod_d2e_denorm_low                  0x000482c0   Section       84  btod.o(CL$$btod_d2e_denorm_low)
    CL$$btod_d2e_norm_op1                    0x00048314   Section      104  btod.o(CL$$btod_d2e_norm_op1)
    CL$$btod_div_common                      0x0004837c   Section      840  btod.o(CL$$btod_div_common)
    CL$$btod_e2e                             0x000486c4   Section      244  btod.o(CL$$btod_e2e)
    CL$$btod_ediv                            0x000487b8   Section       52  btod.o(CL$$btod_ediv)
    CL$$btod_emul                            0x000487ec   Section       52  btod.o(CL$$btod_emul)
    CL$$btod_mult_common                     0x00048820   Section      612  btod.o(CL$$btod_mult_common)
    i.__ARM_common_ctz                       0x00048ab4   Section        0  m_bcn.o(i.__ARM_common_ctz)
    i.__ARM_fpclassify                       0x00048af0   Section        0  fpclassify.o(i.__ARM_fpclassify)
    i._is_digit                              0x00048b20   Section        0  __printf_wp.o(i._is_digit)
    i.ceil                                   0x00048b30   Section        0  ceil.o(i.ceil)
    i.round                                  0x00048c5c   Section        0  round.o(i.round)
    locale$$code                             0x00048d38   Section       72  lc_numeric_c.o(locale$$code)
    locale$$code                             0x00048d80   Section       72  lc_ctype_c.o(locale$$code)
    x$fpl$d2f                                0x00048dc8   Section      108  d2f.o(x$fpl$d2f)
    x$fpl$dadd                               0x00048e34   Section      340  daddsub_clz.o(x$fpl$dadd)
    _dadd1                                   0x00048e44   ARM Code       0  daddsub_clz.o(x$fpl$dadd)
    x$fpl$dcheck1                            0x00048f88   Section       16  dcheck1.o(x$fpl$dcheck1)
    x$fpl$dcmpinf                            0x00048f98   Section       28  dcmpi.o(x$fpl$dcmpinf)
    x$fpl$ddiv                               0x00048fb4   Section      720  ddiv.o(x$fpl$ddiv)
    ddiv_entry                               0x00048fbc   ARM Code       0  ddiv.o(x$fpl$ddiv)
    x$fpl$dfixu                              0x00049284   Section      112  dfixu.o(x$fpl$dfixu)
    x$fpl$dflt                               0x000492f4   Section       52  dflt_clz.o(x$fpl$dflt)
    x$fpl$dfltu                              0x00049328   Section       44  dflt_clz.o(x$fpl$dfltu)
    x$fpl$dleqf                              0x00049354   Section      148  dleqf.o(x$fpl$dleqf)
    x$fpl$dmul                               0x000493e8   Section      376  dmul.o(x$fpl$dmul)
    x$fpl$dnaninf                            0x00049560   Section      184  dnaninf.o(x$fpl$dnaninf)
    x$fpl$dretinf                            0x00049618   Section       16  dretinf.o(x$fpl$dretinf)
    x$fpl$drleqf                             0x00049628   Section      140  drleqf.o(x$fpl$drleqf)
    x$fpl$drnd                               0x000496b4   Section      192  drnd.o(x$fpl$drnd)
    x$fpl$drsb                               0x00049774   Section       24  daddsub_clz.o(x$fpl$drsb)
    x$fpl$dsub                               0x0004978c   Section      512  daddsub_clz.o(x$fpl$dsub)
    _dsub1                                   0x0004979c   ARM Code       0  daddsub_clz.o(x$fpl$dsub)
    x$fpl$f2d                                0x0004998c   Section      100  f2d.o(x$fpl$f2d)
    x$fpl$fadd                               0x000499f0   Section      196  faddsub_clz.o(x$fpl$fadd)
    _fadd1                                   0x000499fc   ARM Code       0  faddsub_clz.o(x$fpl$fadd)
    x$fpl$fcheck1                            0x00049ab4   Section       12  fcheck1.o(x$fpl$fcheck1)
    x$fpl$fdiv                               0x00049ac0   Section      400  fdiv.o(x$fpl$fdiv)
    _fdiv1                                   0x00049ac0   ARM Code       0  fdiv.o(x$fpl$fdiv)
    x$fpl$ffltu                              0x00049c50   Section       40  fflt_clz.o(x$fpl$ffltu)
    x$fpl$fmul                               0x00049c78   Section      256  fmul.o(x$fpl$fmul)
    x$fpl$fnaninf                            0x00049d78   Section      160  fnaninf.o(x$fpl$fnaninf)
    x$fpl$fretinf                            0x00049e18   Section       16  fretinf.o(x$fpl$fretinf)
    x$fpl$frsb                               0x00049e28   Section       20  faddsub_clz.o(x$fpl$frsb)
    x$fpl$fsub                               0x00049e3c   Section      256  faddsub_clz.o(x$fpl$fsub)
    _fsub1                                   0x00049e48   ARM Code       0  faddsub_clz.o(x$fpl$fsub)
    x$fpl$ieeestatus                         0x00049f3c   Section        8  istatus.o(x$fpl$ieeestatus)
    x$fpl$printf1                            0x00049f44   Section        4  printf1.o(x$fpl$printf1)
    x$fpl$printf2                            0x00049f48   Section        4  printf2.o(x$fpl$printf2)
    x$fpl$retnan                             0x00049f4c   Section      116  retnan.o(x$fpl$retnan)
    x$fpl$scalbn                             0x00049fc0   Section      104  scalbn.o(x$fpl$scalbn)
    x$fpl$scalbnf                            0x0004a028   Section       92  scalbnf.o(x$fpl$scalbnf)
    x$fpl$trapveneer                         0x0004a084   Section       60  trapv.o(x$fpl$trapveneer)
    .constdata                               0x0004a0c0   Section       46  arch_main_1.o(.constdata)
    x$fpl$usenofp                            0x0004a0c0   Section        0  usenofp.o(x$fpl$usenofp)
    __func__                                 0x0004a0c0   Data          11  arch_main_1.o(.constdata)
    __func__                                 0x0004a0cb   Data          13  arch_main_1.o(.constdata)
    __func__                                 0x0004a0d8   Data          12  arch_main_1.o(.constdata)
    __func__                                 0x0004a0e4   Data          10  arch_main_1.o(.constdata)
    .constdata                               0x0004a0ee   Section       17  mesh_log.o(.constdata)
    hex                                      0x0004a0ee   Data          17  mesh_log.o(.constdata)
    .constdata                               0x0004a100   Section       56  bass.o(.constdata)
    .constdata                               0x0004a138   Section       48  bass_task.o(.constdata)
    .constdata                               0x0004a168   Section        8  bass_task.o(.constdata)
    .constdata                               0x0004a170   Section      168  diss.o(.constdata)
    .constdata                               0x0004a218   Section       24  diss_task.o(.constdata)
    .constdata                               0x0004a230   Section        8  diss_task.o(.constdata)
    .constdata                               0x0004a238   Section       64  fff0s.o(.constdata)
    .constdata                               0x0004a278   Section       40  fff0s_task.o(.constdata)
    .constdata                               0x0004a2a0   Section        8  fff0s_task.o(.constdata)
    .constdata                               0x0004a2a8   Section      126  oads.o(.constdata)
    __func__                                 0x0004a300   Data          20  oads.o(.constdata)
    __func__                                 0x0004a314   Data          18  oads.o(.constdata)
    .constdata                               0x0004a328   Section       48  oads_task.o(.constdata)
    .constdata                               0x0004a358   Section        8  oads_task.o(.constdata)
    .constdata                               0x0004a360   Section       50  oads_task.o(.constdata)
    __func__                                 0x0004a360   Data          24  oads_task.o(.constdata)
    __func__                                 0x0004a378   Data          26  oads_task.o(.constdata)
    .constdata                               0x0004a394   Section       40  app.o(.constdata)
    TASK_DESC_APP                            0x0004a394   Data          16  app.o(.constdata)
    appm_add_svc_func_list                   0x0004a3a4   Data          24  app.o(.constdata)
    .constdata                               0x0004a3bc   Section      136  app_task.o(.constdata)
    .constdata                               0x0004a444   Section        8  app_task.o(.constdata)
    .constdata                               0x0004a44c   Section      181  app_task.o(.constdata)
    __func__                                 0x0004a44c   Data          32  app_task.o(.constdata)
    __func__                                 0x0004a46c   Data          25  app_task.o(.constdata)
    __func__                                 0x0004a485   Data          29  app_task.o(.constdata)
    __func__                                 0x0004a4a2   Data          31  app_task.o(.constdata)
    __func__                                 0x0004a4c1   Data          30  app_task.o(.constdata)
    __func__                                 0x0004a4df   Data          34  app_task.o(.constdata)
    .constdata                               0x0004a504   Section       80  app_mesh.o(.constdata)
    .constdata                               0x0004a554   Section        8  app_mesh.o(.constdata)
    .constdata                               0x0004a55c   Section      146  app_mesh.o(.constdata)
    __func__                                 0x0004a55c   Data          27  app_mesh.o(.constdata)
    __func__                                 0x0004a577   Data          36  app_mesh.o(.constdata)
    __func__                                 0x0004a59b   Data          47  app_mesh.o(.constdata)
    __func__                                 0x0004a5ca   Data          36  app_mesh.o(.constdata)
    .constdata                               0x0004a5f0   Section       32  app_batt.o(.constdata)
    .constdata                               0x0004a610   Section        8  app_batt.o(.constdata)
    .constdata                               0x0004a618   Section        8  app_dis.o(.constdata)
    .constdata                               0x0004a620   Section        8  app_dis.o(.constdata)
    .constdata                               0x0004a628   Section       40  app_fff0.o(.constdata)
    .constdata                               0x0004a650   Section        8  app_fff0.o(.constdata)
    .constdata                               0x0004a658   Section       26  app_fff0.o(.constdata)
    __func__                                 0x0004a658   Data          26  app_fff0.o(.constdata)
    .constdata                               0x0004a674   Section       48  app_oads.o(.constdata)
    .constdata                               0x0004a6a4   Section        8  app_oads.o(.constdata)
    .constdata                               0x0004a6ac   Section      168  app_oads.o(.constdata)
    __func__                                 0x0004a6ac   Data          26  app_oads.o(.constdata)
    __func__                                 0x0004a6c6   Data          28  app_oads.o(.constdata)
    __func__                                 0x0004a6e2   Data          28  app_oads.o(.constdata)
    __func__                                 0x0004a6fe   Data          17  app_oads.o(.constdata)
    __func__                                 0x0004a70f   Data          17  app_oads.o(.constdata)
    __func__                                 0x0004a720   Data          26  app_oads.o(.constdata)
    __func__                                 0x0004a73a   Data          26  app_oads.o(.constdata)
    .constdata                               0x0004a754   Section       20  oad_common.o(.constdata)
    __func__                                 0x0004a754   Data          20  oad_common.o(.constdata)
    .constdata                               0x0004a768   Section       83  ali_config.o(.constdata)
    __func__                                 0x0004a768   Data          30  ali_config.o(.constdata)
    __func__                                 0x0004a786   Data          30  ali_config.o(.constdata)
    __func__                                 0x0004a7a4   Data          23  ali_config.o(.constdata)
    .constdata                               0x0004a7bb   Section       53  app_light_ali_server.o(.constdata)
    __func__                                 0x0004a7bb   Data          24  app_light_ali_server.o(.constdata)
    __func__                                 0x0004a7d3   Data          29  app_light_ali_server.o(.constdata)
    .constdata                               0x0004a7f0   Section      772  led.o(.constdata)
    temperature_map                          0x0004a7f0   Data         772  led.o(.constdata)
    .constdata                               0x0004aaf4   Section      139  m_api.o(.constdata)
    __func__                                 0x0004aaf4   Data          24  m_api.o(.constdata)
    __func__                                 0x0004ab0c   Data          19  m_api.o(.constdata)
    __func__                                 0x0004ab1f   Data          21  m_api.o(.constdata)
    __func__                                 0x0004ab34   Data          30  m_api.o(.constdata)
    __func__                                 0x0004ab52   Data          19  m_api.o(.constdata)
    __func__                                 0x0004ab65   Data          26  m_api.o(.constdata)
    .constdata                               0x0004ab80   Section       72  m_api_msg.o(.constdata)
    m_api_msg_cb                             0x0004ab80   Data          40  m_api_msg.o(.constdata)
    m_api_msg_fault_cb                       0x0004aba8   Data          16  m_api_msg.o(.constdata)
    m_api_msg_model_cb                       0x0004abb8   Data          16  m_api_msg.o(.constdata)
    .constdata                               0x0004abc8   Section        4  mesh_api_msg.o(.constdata)
    mesh_api_msg_cb                          0x0004abc8   Data           4  mesh_api_msg.o(.constdata)
    .constdata                               0x0004abcc   Section       55  mm_api_msg.o(.constdata)
    mm_api_msg_cb                            0x0004abcc   Data          32  mm_api_msg.o(.constdata)
    __func__                                 0x0004abec   Data          23  mm_api_msg.o(.constdata)
    .constdata                               0x0004ac04   Section       16  m_fnd_blob_transfer.o(.constdata)
    .constdata                               0x0004ac14   Section       16  m_fnd_fw_update.o(.constdata)
    .constdata                               0x0004ac24   Section       16  m_fnd_scenes.o(.constdata)
    .constdata                               0x0004ac34   Section       20  mm_gens.o(.constdata)
    __func__                                 0x0004ac34   Data          20  mm_gens.o(.constdata)
    .constdata                               0x0004ac48   Section       61  mm_gens_oo.o(.constdata)
    __func__                                 0x0004ac48   Data          23  mm_gens_oo.o(.constdata)
    __func__                                 0x0004ac5f   Data          18  mm_gens_oo.o(.constdata)
    __func__                                 0x0004ac71   Data          20  mm_gens_oo.o(.constdata)
    .constdata                               0x0004ac85   Section       95  mm_lights.o(.constdata)
    __func__                                 0x0004ac85   Data          22  mm_lights.o(.constdata)
    __func__                                 0x0004ac9b   Data          23  mm_lights.o(.constdata)
    __func__                                 0x0004acb2   Data          23  mm_lights.o(.constdata)
    __func__                                 0x0004acc9   Data          27  mm_lights.o(.constdata)
    .constdata                               0x0004ace4   Section      125  mm_lights_ctl.o(.constdata)
    __func__                                 0x0004ace4   Data          26  mm_lights_ctl.o(.constdata)
    __func__                                 0x0004acfe   Data          31  mm_lights_ctl.o(.constdata)
    __func__                                 0x0004ad1d   Data          31  mm_lights_ctl.o(.constdata)
    __func__                                 0x0004ad3c   Data          37  mm_lights_ctl.o(.constdata)
    .constdata                               0x0004ad61   Section      336  mm_lights_hsl.o(.constdata)
    __func__                                 0x0004ad61   Data          26  mm_lights_hsl.o(.constdata)
    __func__                                 0x0004ad7b   Data          30  mm_lights_hsl.o(.constdata)
    __func__                                 0x0004ad99   Data          30  mm_lights_hsl.o(.constdata)
    __func__                                 0x0004adb7   Data          31  mm_lights_hsl.o(.constdata)
    __func__                                 0x0004add6   Data          32  mm_lights_hsl.o(.constdata)
    __func__                                 0x0004adf6   Data          30  mm_lights_hsl.o(.constdata)
    __func__                                 0x0004ae14   Data          21  mm_lights_hsl.o(.constdata)
    __func__                                 0x0004ae29   Data          25  mm_lights_hsl.o(.constdata)
    __func__                                 0x0004ae42   Data          25  mm_lights_hsl.o(.constdata)
    __func__                                 0x0004ae5b   Data          28  mm_lights_hsl.o(.constdata)
    __func__                                 0x0004ae77   Data          28  mm_lights_hsl.o(.constdata)
    __func__                                 0x0004ae93   Data          30  mm_lights_hsl.o(.constdata)
    .constdata                               0x0004aeb1   Section      138  mm_lights_ln.o(.constdata)
    __func__                                 0x0004aeb1   Data          25  mm_lights_ln.o(.constdata)
    __func__                                 0x0004aeca   Data          30  mm_lights_ln.o(.constdata)
    __func__                                 0x0004aee8   Data          30  mm_lights_ln.o(.constdata)
    __func__                                 0x0004af06   Data          31  mm_lights_ln.o(.constdata)
    __func__                                 0x0004af25   Data          22  mm_lights_ln.o(.constdata)
    .constdata                               0x0004af3c   Section     8488  aes.o(.constdata)
    Te0                                      0x0004af3c   Data        1024  aes.o(.constdata)
    Te1                                      0x0004b33c   Data        1024  aes.o(.constdata)
    Te2                                      0x0004b73c   Data        1024  aes.o(.constdata)
    Te3                                      0x0004bb3c   Data        1024  aes.o(.constdata)
    Td0                                      0x0004bf3c   Data        1024  aes.o(.constdata)
    Td1                                      0x0004c33c   Data        1024  aes.o(.constdata)
    Td2                                      0x0004c73c   Data        1024  aes.o(.constdata)
    Td3                                      0x0004cb3c   Data        1024  aes.o(.constdata)
    Td4                                      0x0004cf3c   Data         256  aes.o(.constdata)
    rcon                                     0x0004d03c   Data          40  aes.o(.constdata)
    .constdata                               0x0004d064   Section      120  ais.o(.constdata)
    .constdata                               0x0004d0dc   Section       40  ais_task.o(.constdata)
    .constdata                               0x0004d104   Section        8  ais_task.o(.constdata)
    .constdata                               0x0004d10c   Section       16  app_ais.o(.constdata)
    .constdata                               0x0004d11c   Section        8  app_ais.o(.constdata)
    .constdata                               0x0004d124   Section      256  sha256.o(.constdata)
    k                                        0x0004d124   Data         256  sha256.o(.constdata)
    .constdata                               0x0004d224   Section       16  mal.o(.constdata)
    mal_itf                                  0x0004d224   Data          16  mal.o(.constdata)
    .constdata                               0x0004d234   Section      207  mesh_tb_buf.o(.constdata)
    __func__                                 0x0004d234   Data          23  mesh_tb_buf.o(.constdata)
    __func__                                 0x0004d24b   Data          18  mesh_tb_buf.o(.constdata)
    __func__                                 0x0004d25d   Data          25  mesh_tb_buf.o(.constdata)
    __func__                                 0x0004d276   Data          25  mesh_tb_buf.o(.constdata)
    __func__                                 0x0004d28f   Data          25  mesh_tb_buf.o(.constdata)
    __func__                                 0x0004d2a8   Data          25  mesh_tb_buf.o(.constdata)
    __func__                                 0x0004d2c1   Data          17  mesh_tb_buf.o(.constdata)
    __func__                                 0x0004d2d2   Data          31  mesh_tb_buf.o(.constdata)
    __func__                                 0x0004d2f1   Data          18  mesh_tb_buf.o(.constdata)
    .constdata                               0x0004d304   Section       99  m_bcn.o(.constdata)
    __func__                                 0x0004d314   Data          19  m_bcn.o(.constdata)
    __func__                                 0x0004d327   Data          21  m_bcn.o(.constdata)
    __func__                                 0x0004d33c   Data          20  m_bcn.o(.constdata)
    __func__                                 0x0004d350   Data          23  m_bcn.o(.constdata)
    .constdata                               0x0004d368   Section        8  m_bearer.o(.constdata)
    .constdata                               0x0004d370   Section       82  m_bearer.o(.constdata)
    __func__                                 0x0004d370   Data          14  m_bearer.o(.constdata)
    __func__                                 0x0004d37e   Data          16  m_bearer.o(.constdata)
    __func__                                 0x0004d38e   Data          23  m_bearer.o(.constdata)
    __func__                                 0x0004d3a5   Data          15  m_bearer.o(.constdata)
    __func__                                 0x0004d3b4   Data          14  m_bearer.o(.constdata)
    .constdata                               0x0004d3c4   Section      123  m_fnd_hlths.o(.constdata)
    __func__                                 0x0004d3d4   Data          34  m_fnd_hlths.o(.constdata)
    __func__                                 0x0004d3f6   Data          31  m_fnd_hlths.o(.constdata)
    __func__                                 0x0004d415   Data          24  m_fnd_hlths.o(.constdata)
    __func__                                 0x0004d42d   Data          18  m_fnd_hlths.o(.constdata)
    .constdata                               0x0004d440   Section        8  m_lay_access.o(.constdata)
    .constdata                               0x0004d448   Section      122  m_lay_access.o(.constdata)
    __func__                                 0x0004d448   Data          27  m_lay_access.o(.constdata)
    __func__                                 0x0004d463   Data          25  m_lay_access.o(.constdata)
    __func__                                 0x0004d47c   Data          21  m_lay_access.o(.constdata)
    __func__                                 0x0004d491   Data          22  m_lay_access.o(.constdata)
    __func__                                 0x0004d4a7   Data          27  m_lay_access.o(.constdata)
    .constdata                               0x0004d4c4   Section       16  m_lay_proxy.o(.constdata)
    .constdata                               0x0004d4d4   Section      211  m_lay_proxy.o(.constdata)
    __func__                                 0x0004d4d4   Data          30  m_lay_proxy.o(.constdata)
    __func__                                 0x0004d4f2   Data          30  m_lay_proxy.o(.constdata)
    __func__                                 0x0004d510   Data          29  m_lay_proxy.o(.constdata)
    __func__                                 0x0004d52d   Data          15  m_lay_proxy.o(.constdata)
    __func__                                 0x0004d53c   Data          29  m_lay_proxy.o(.constdata)
    __func__                                 0x0004d559   Data          25  m_lay_proxy.o(.constdata)
    __func__                                 0x0004d572   Data          25  m_lay_proxy.o(.constdata)
    __func__                                 0x0004d58b   Data          28  m_lay_proxy.o(.constdata)
    .constdata                               0x0004d5a8   Section      688  m_prov.o(.constdata)
    m_prov_cfm_key_p_val                     0x0004d5a8   Data           4  m_prov.o(.constdata)
    m_prov_session_key_p_val                 0x0004d5ac   Data           4  m_prov.o(.constdata)
    m_prov_session_nonce_p_val               0x0004d5b0   Data           4  m_prov.o(.constdata)
    m_prov_device_key_p_val                  0x0004d5b4   Data           4  m_prov.o(.constdata)
    m_prov_pdu_handlers                      0x0004d5b8   Data         120  m_prov.o(.constdata)
    __func__                                 0x0004d630   Data          16  m_prov.o(.constdata)
    __func__                                 0x0004d640   Data          18  m_prov.o(.constdata)
    __func__                                 0x0004d67c   Data          26  m_prov.o(.constdata)
    __func__                                 0x0004d696   Data          25  m_prov.o(.constdata)
    __func__                                 0x0004d6af   Data          27  m_prov.o(.constdata)
    __func__                                 0x0004d6ca   Data          23  m_prov.o(.constdata)
    __func__                                 0x0004d6e1   Data          26  m_prov.o(.constdata)
    __func__                                 0x0004d6fb   Data          24  m_prov.o(.constdata)
    __func__                                 0x0004d713   Data          28  m_prov.o(.constdata)
    __func__                                 0x0004d72f   Data          25  m_prov.o(.constdata)
    __func__                                 0x0004d748   Data          26  m_prov.o(.constdata)
    __func__                                 0x0004d762   Data          24  m_prov.o(.constdata)
    __func__                                 0x0004d77a   Data          19  m_prov.o(.constdata)
    __func__                                 0x0004d78d   Data          22  m_prov.o(.constdata)
    __func__                                 0x0004d7a3   Data          24  m_prov.o(.constdata)
    __func__                                 0x0004d7bb   Data          20  m_prov.o(.constdata)
    __func__                                 0x0004d7cf   Data          23  m_prov.o(.constdata)
    __func__                                 0x0004d7e6   Data          24  m_prov.o(.constdata)
    __func__                                 0x0004d7fe   Data          20  m_prov.o(.constdata)
    __func__                                 0x0004d812   Data          20  m_prov.o(.constdata)
    __func__                                 0x0004d826   Data          17  m_prov.o(.constdata)
    __func__                                 0x0004d837   Data          19  m_prov.o(.constdata)
    __func__                                 0x0004d84a   Data          14  m_prov.o(.constdata)
    .constdata                               0x0004d858   Section      137  m_prov_bearer.o(.constdata)
    __func__                                 0x0004d868   Data          20  m_prov_bearer.o(.constdata)
    __func__                                 0x0004d87c   Data          19  m_prov_bearer.o(.constdata)
    __func__                                 0x0004d88f   Data          24  m_prov_bearer.o(.constdata)
    __func__                                 0x0004d8a7   Data          34  m_prov_bearer.o(.constdata)
    __func__                                 0x0004d8c9   Data          24  m_prov_bearer.o(.constdata)
    .constdata                               0x0004d8e1   Section      185  m_tb_key.o(.constdata)
    m_tb_key_k2_p                            0x0004d8e1   Data           1  m_tb_key.o(.constdata)
    m_tb_key_k1_p                            0x0004d8e2   Data           6  m_tb_key.o(.constdata)
    m_tb_key_k1_idk_salt                     0x0004d8e8   Data          16  m_tb_key.o(.constdata)
    m_tb_key_k1_beacon_salt                  0x0004d8f8   Data          16  m_tb_key.o(.constdata)
    __func__                                 0x0004d908   Data          17  m_tb_key.o(.constdata)
    __func__                                 0x0004d919   Data          20  m_tb_key.o(.constdata)
    __func__                                 0x0004d92d   Data          20  m_tb_key.o(.constdata)
    __func__                                 0x0004d941   Data          17  m_tb_key.o(.constdata)
    __func__                                 0x0004d952   Data          20  m_tb_key.o(.constdata)
    __func__                                 0x0004d966   Data          22  m_tb_key.o(.constdata)
    __func__                                 0x0004d97c   Data          30  m_tb_key.o(.constdata)
    .constdata                               0x0004d99a   Section       74  m_tb_mio.o(.constdata)
    __func__                                 0x0004d99a   Data          24  m_tb_mio.o(.constdata)
    __func__                                 0x0004d9b2   Data          25  m_tb_mio.o(.constdata)
    __func__                                 0x0004d9cb   Data          25  m_tb_mio.o(.constdata)
    .constdata                               0x0004d9e4   Section       99  m_tb_store_nvds.o(.constdata)
    __func__                                 0x0004d9e4   Data          30  m_tb_store_nvds.o(.constdata)
    __func__                                 0x0004da02   Data          32  m_tb_store_nvds.o(.constdata)
    __func__                                 0x0004da22   Data          21  m_tb_store_nvds.o(.constdata)
    __func__                                 0x0004da37   Data          16  m_tb_store_nvds.o(.constdata)
    .constdata                               0x0004da47   Section      146  m_tb_state.o(.constdata)
    __func__                                 0x0004da47   Data          27  m_tb_state.o(.constdata)
    __func__                                 0x0004da62   Data          29  m_tb_state.o(.constdata)
    __func__                                 0x0004da7f   Data          30  m_tb_state.o(.constdata)
    __func__                                 0x0004da9d   Data          32  m_tb_state.o(.constdata)
    __func__                                 0x0004dabd   Data          28  m_tb_state.o(.constdata)
    .constdata                               0x0004dad9   Section      143  mm_tb_bind.o(.constdata)
    __func__                                 0x0004dad9   Data          25  mm_tb_bind.o(.constdata)
    __func__                                 0x0004daf2   Data          27  mm_tb_bind.o(.constdata)
    __func__                                 0x0004db0d   Data          21  mm_tb_bind.o(.constdata)
    __func__                                 0x0004db22   Data          24  mm_tb_bind.o(.constdata)
    __func__                                 0x0004db3a   Data          23  mm_tb_bind.o(.constdata)
    __func__                                 0x0004db51   Data          23  mm_tb_bind.o(.constdata)
    .constdata                               0x0004db68   Section       16  mm_route.o(.constdata)
    .constdata                               0x0004db78   Section       83  mm_route.o(.constdata)
    __func__                                 0x0004db78   Data          17  mm_route.o(.constdata)
    __func__                                 0x0004db89   Data          15  mm_route.o(.constdata)
    __func__                                 0x0004db98   Data          25  mm_route.o(.constdata)
    __func__                                 0x0004dbb1   Data          26  mm_route.o(.constdata)
    .constdata                               0x0004dbcb   Section       40  mm_tb_state.o(.constdata)
    __func__                                 0x0004dbcb   Data          21  mm_tb_state.o(.constdata)
    __func__                                 0x0004dbe0   Data          19  mm_tb_state.o(.constdata)
    .constdata                               0x0004dbf4   Section       12  mal_adv.o(.constdata)
    .constdata                               0x0004dc00   Section       96  mal_con.o(.constdata)
    mal_con_prov_att_db                      0x0004dc00   Data          48  mal_con.o(.constdata)
    mal_con_proxy_att_db                     0x0004dc30   Data          48  mal_con.o(.constdata)
    .constdata                               0x0004dc60   Section       16  mal_con.o(.constdata)
    .constdata                               0x0004dc70   Section       72  mal_task.o(.constdata)
    mal_default_state                        0x0004dc70   Data          72  mal_task.o(.constdata)
    .constdata                               0x0004dcb8   Section        8  mal_task.o(.constdata)
    mal_default_handler                      0x0004dcb8   Data           8  mal_task.o(.constdata)
    .constdata                               0x0004dcc0   Section       20  mesh_tb_sec.o(.constdata)
    __func__                                 0x0004dcc0   Data          20  mesh_tb_sec.o(.constdata)
    .constdata                               0x0004dcd4   Section       57  m_bearer_adv.o(.constdata)
    m_bearer_adv_cb                          0x0004dcd4   Data          16  m_bearer_adv.o(.constdata)
    __func__                                 0x0004dce4   Data          22  m_bearer_adv.o(.constdata)
    __func__                                 0x0004dcfa   Data          19  m_bearer_adv.o(.constdata)
    .constdata                               0x0004dd10   Section      146  m_bearer_gatt.o(.constdata)
    m_bearer_gatt_cb                         0x0004dd10   Data          24  m_bearer_gatt.o(.constdata)
    __func__                                 0x0004dd28   Data          22  m_bearer_gatt.o(.constdata)
    __func__                                 0x0004dd3e   Data          17  m_bearer_gatt.o(.constdata)
    __func__                                 0x0004dd4f   Data          20  m_bearer_gatt.o(.constdata)
    __func__                                 0x0004dd63   Data          19  m_bearer_gatt.o(.constdata)
    __func__                                 0x0004dd76   Data          25  m_bearer_gatt.o(.constdata)
    __func__                                 0x0004dd8f   Data          19  m_bearer_gatt.o(.constdata)
    .constdata                               0x0004dda4   Section     1137  m_fnd_confs.o(.constdata)
    m_fnd_confs_vtad_salt                    0x0004dda4   Data          16  m_fnd_confs.o(.constdata)
    __func__                                 0x0004ddc4   Data          17  m_fnd_confs.o(.constdata)
    __func__                                 0x0004ddd5   Data          35  m_fnd_confs.o(.constdata)
    __func__                                 0x0004ddf8   Data          33  m_fnd_confs.o(.constdata)
    __func__                                 0x0004de19   Data          34  m_fnd_confs.o(.constdata)
    __func__                                 0x0004de3b   Data          31  m_fnd_confs.o(.constdata)
    __func__                                 0x0004de5a   Data          29  m_fnd_confs.o(.constdata)
    __func__                                 0x0004de77   Data          31  m_fnd_confs.o(.constdata)
    __func__                                 0x0004de96   Data          29  m_fnd_confs.o(.constdata)
    __func__                                 0x0004deb3   Data          34  m_fnd_confs.o(.constdata)
    __func__                                 0x0004ded5   Data          32  m_fnd_confs.o(.constdata)
    __func__                                 0x0004def5   Data          36  m_fnd_confs.o(.constdata)
    __func__                                 0x0004df19   Data          31  m_fnd_confs.o(.constdata)
    __func__                                 0x0004df38   Data          30  m_fnd_confs.o(.constdata)
    __func__                                 0x0004df56   Data          35  m_fnd_confs.o(.constdata)
    __func__                                 0x0004df79   Data          31  m_fnd_confs.o(.constdata)
    __func__                                 0x0004df98   Data          31  m_fnd_confs.o(.constdata)
    __func__                                 0x0004dfb7   Data          42  m_fnd_confs.o(.constdata)
    __func__                                 0x0004dfe1   Data          32  m_fnd_confs.o(.constdata)
    __func__                                 0x0004e001   Data          35  m_fnd_confs.o(.constdata)
    __func__                                 0x0004e024   Data          35  m_fnd_confs.o(.constdata)
    __func__                                 0x0004e047   Data          34  m_fnd_confs.o(.constdata)
    __func__                                 0x0004e069   Data          35  m_fnd_confs.o(.constdata)
    __func__                                 0x0004e08c   Data          37  m_fnd_confs.o(.constdata)
    __func__                                 0x0004e0b1   Data          38  m_fnd_confs.o(.constdata)
    __func__                                 0x0004e0d7   Data          31  m_fnd_confs.o(.constdata)
    __func__                                 0x0004e0f6   Data          37  m_fnd_confs.o(.constdata)
    __func__                                 0x0004e11b   Data          35  m_fnd_confs.o(.constdata)
    __func__                                 0x0004e13e   Data          39  m_fnd_confs.o(.constdata)
    __func__                                 0x0004e165   Data          34  m_fnd_confs.o(.constdata)
    __func__                                 0x0004e187   Data          34  m_fnd_confs.o(.constdata)
    __func__                                 0x0004e1a9   Data          27  m_fnd_confs.o(.constdata)
    __func__                                 0x0004e1c4   Data          30  m_fnd_confs.o(.constdata)
    __func__                                 0x0004e1e2   Data          31  m_fnd_confs.o(.constdata)
    __func__                                 0x0004e201   Data          20  m_fnd_confs.o(.constdata)
    .constdata                               0x0004e218   Section        8  m_lay_hb.o(.constdata)
    .constdata                               0x0004e220   Section        4  m_lay_hb.o(.constdata)
    .constdata                               0x0004e224   Section       14  m_lay_hb.o(.constdata)
    __func__                                 0x0004e224   Data          14  m_lay_hb.o(.constdata)
    .constdata                               0x0004e234   Section        4  m_lay_ltrans.o(.constdata)
    .constdata                               0x0004e238   Section       16  m_lay_ltrans.o(.constdata)
    .constdata                               0x0004e248   Section       92  m_lay_ltrans.o(.constdata)
    __func__                                 0x0004e248   Data          28  m_lay_ltrans.o(.constdata)
    __func__                                 0x0004e264   Data          22  m_lay_ltrans.o(.constdata)
    __func__                                 0x0004e27a   Data          24  m_lay_ltrans.o(.constdata)
    __func__                                 0x0004e292   Data          18  m_lay_ltrans.o(.constdata)
    .constdata                               0x0004e2a4   Section        4  m_lay_net.o(.constdata)
    .constdata                               0x0004e2a8   Section       16  m_lay_net.o(.constdata)
    .constdata                               0x0004e2b8   Section      267  m_lay_net.o(.constdata)
    __func__                                 0x0004e2b8   Data          22  m_lay_net.o(.constdata)
    __func__                                 0x0004e2ce   Data          27  m_lay_net.o(.constdata)
    __func__                                 0x0004e2e9   Data          30  m_lay_net.o(.constdata)
    __func__                                 0x0004e307   Data          26  m_lay_net.o(.constdata)
    __func__                                 0x0004e321   Data          29  m_lay_net.o(.constdata)
    __func__                                 0x0004e33e   Data          29  m_lay_net.o(.constdata)
    __func__                                 0x0004e35b   Data          32  m_lay_net.o(.constdata)
    __func__                                 0x0004e37b   Data          27  m_lay_net.o(.constdata)
    __func__                                 0x0004e396   Data          30  m_lay_net.o(.constdata)
    __func__                                 0x0004e3b4   Data          15  m_lay_net.o(.constdata)
    .constdata                               0x0004e3c4   Section        4  m_lay_utrans.o(.constdata)
    .constdata                               0x0004e3c8   Section        8  m_lay_utrans.o(.constdata)
    .constdata                               0x0004e3d0   Section      176  m_lay_utrans.o(.constdata)
    __func__                                 0x0004e3d0   Data          30  m_lay_utrans.o(.constdata)
    __func__                                 0x0004e3ee   Data          33  m_lay_utrans.o(.constdata)
    __func__                                 0x0004e40f   Data          30  m_lay_utrans.o(.constdata)
    __func__                                 0x0004e42d   Data          33  m_lay_utrans.o(.constdata)
    __func__                                 0x0004e44e   Data          18  m_lay_utrans.o(.constdata)
    __func__                                 0x0004e460   Data          16  m_lay_utrans.o(.constdata)
    __func__                                 0x0004e470   Data          16  m_lay_utrans.o(.constdata)
    .constdata                               0x0004e480   Section      380  m_prov_adv_trans.o(.constdata)
    m_prov_adv_crctable                      0x0004e480   Data         256  m_prov_adv_trans.o(.constdata)
    __func__                                 0x0004e580   Data          23  m_prov_adv_trans.o(.constdata)
    __func__                                 0x0004e597   Data          26  m_prov_adv_trans.o(.constdata)
    __func__                                 0x0004e5b1   Data          22  m_prov_adv_trans.o(.constdata)
    __func__                                 0x0004e5c7   Data          33  m_prov_adv_trans.o(.constdata)
    __func__                                 0x0004e5e8   Data          20  m_prov_adv_trans.o(.constdata)
    .constdata                               0x0004e5fc   Section       10  aes.o(.constdata)
    __func__                                 0x0004e5fc   Data          10  aes.o(.constdata)
    .constdata                               0x0004e606   Section        8  aes_ccm.o(.constdata)
    __func__                                 0x0004e606   Data           8  aes_ccm.o(.constdata)
    .constdata                               0x0004e60e   Section       25  aes_cmac.o(.constdata)
    __func__                                 0x0004e61e   Data           9  aes_cmac.o(.constdata)
    .constdata                               0x0004e627   Section       16  aes_k2.o(.constdata)
    .constdata                               0x0004e637   Section       28  aes_k3.o(.constdata)
    __func__                                 0x0004e63c   Data           7  aes_k3.o(.constdata)
    .constdata                               0x0004e653   Section       27  aes_k4.o(.constdata)
    __func__                                 0x0004e657   Data           7  aes_k4.o(.constdata)
    .constdata                               0x0004e66e   Section        7  aes_s1.o(.constdata)
    __func__                                 0x0004e66e   Data           7  aes_s1.o(.constdata)
    .constdata                               0x0004e675   Section       40  _printf_hex_int_ll_ptr.o(.constdata)
    uc_hextab                                0x0004e675   Data          20  _printf_hex_int_ll_ptr.o(.constdata)
    lc_hextab                                0x0004e689   Data          20  _printf_hex_int_ll_ptr.o(.constdata)
    .constdata                               0x0004e69d   Section       17  __printf_flags_ss_wp.o(.constdata)
    maptable                                 0x0004e69d   Data          17  __printf_flags_ss_wp.o(.constdata)
    .constdata                               0x0004e6b0   Section        8  _printf_wctomb.o(.constdata)
    initial_mbstate                          0x0004e6b0   Data           8  _printf_wctomb.o(.constdata)
    .constdata                               0x0004e6b8   Section       38  _printf_fp_hex.o(.constdata)
    lc_hextab                                0x0004e6b8   Data          19  _printf_fp_hex.o(.constdata)
    uc_hextab                                0x0004e6cb   Data          19  _printf_fp_hex.o(.constdata)
    .constdata                               0x0004e6e0   Section      148  bigflt0.o(.constdata)
    tenpwrs_x                                0x0004e6e0   Data          60  bigflt0.o(.constdata)
    tenpwrs_i                                0x0004e71c   Data          64  bigflt0.o(.constdata)
    .conststring                             0x0004e774   Section      263  arch_main_1.o(.conststring)
    .conststring                             0x0004e87c   Section       66  app.o(.conststring)
    .conststring                             0x0004e8c0   Section      144  app_task.o(.conststring)
    .conststring                             0x0004e950   Section      202  app_mesh.o(.conststring)
    .conststring                             0x0004ea1c   Section       66  app_mm_msg.o(.conststring)
    .conststring                             0x0004ea60   Section       67  app_light_ali_server.o(.conststring)
    .conststring                             0x0004eaa4   Section      275  mm_vendors.o(.conststring)
    .conststring                             0x0004ebb8   Section       77  mm_gens.o(.conststring)
    .conststring                             0x0004ec08   Section      263  mm_lights.o(.conststring)
    .conststring                             0x0004ed10   Section      354  mm_lights_ln.o(.conststring)
    .conststring                             0x0004ee74   Section       78  gma.o(.conststring)
    .conststring                             0x0004eec4   Section       65  mesh_tb_buf.o(.conststring)
    .conststring                             0x0004ef08   Section      415  m_lay_access.o(.conststring)
    .conststring                             0x0004f0a8   Section       82  m_lay_proxy.o(.conststring)
    .conststring                             0x0004f0fc   Section      433  m_prov.o(.conststring)
    .conststring                             0x0004f2b0   Section       72  m_prov_bearer.o(.conststring)
    .conststring                             0x0004f2f8   Section       66  m_tb_key.o(.conststring)
    .conststring                             0x0004f33c   Section       86  m_tb_store_nvds.o(.conststring)
    .conststring                             0x0004f394   Section      153  m_tb_state.o(.conststring)
    .conststring                             0x0004f430   Section       66  mal_task.o(.conststring)
    .conststring                             0x0004f474   Section       70  m_bearer_gatt.o(.conststring)
    .conststring                             0x0004f4bc   Section      151  m_fnd_confs.o(.conststring)
    .conststring                             0x0004f554   Section       66  m_lay_ltrans.o(.conststring)
    .conststring                             0x0004f598   Section       70  m_lay_utrans.o(.conststring)
    locale$$data                             0x0004f600   Section       28  lc_numeric_c.o(locale$$data)
    __lcnum_c_name                           0x0004f604   Data           2  lc_numeric_c.o(locale$$data)
    __lcnum_c_start                          0x0004f60c   Data           0  lc_numeric_c.o(locale$$data)
    __lcnum_c_point                          0x0004f618   Data           0  lc_numeric_c.o(locale$$data)
    __lcnum_c_thousands                      0x0004f61a   Data           0  lc_numeric_c.o(locale$$data)
    __lcnum_c_grouping                       0x0004f61b   Data           0  lc_numeric_c.o(locale$$data)
    locale$$data                             0x0004f61c   Section      272  lc_ctype_c.o(locale$$data)
    __lcnum_c_end                            0x0004f61c   Data           0  lc_numeric_c.o(locale$$data)
    __lcctype_c_name                         0x0004f620   Data           2  lc_ctype_c.o(locale$$data)
    __lcctype_c_start                        0x0004f628   Data           0  lc_ctype_c.o(locale$$data)
    __lcctype_c_end                          0x0004f72c   Data           0  lc_ctype_c.o(locale$$data)
    .data                                    0x00400c00   Section        8  arch_main_1.o(.data)
    .data                                    0x00400c08   Section        2  icu.o(.data)
    reduce_voltage_set                       0x00400c08   Data           1  icu.o(.data)
    default_sleep_mode                       0x00400c09   Data           1  icu.o(.data)
    .data                                    0x00400c0c   Section       24  uart.o(.data)
    str                                      0x00400c14   Data           3  uart.o(.data)
    usrt_rx_cb                               0x00400c1c   Data           4  uart.o(.data)
    .data                                    0x00400c24   Section        8  flash.o(.data)
    .data                                    0x00400c2c   Section        2  wdt.o(.data)
    wdt_enable_status                        0x00400c2d   Data           1  wdt.o(.data)
    .data                                    0x00400c30   Section       44  gpio.o(.data)
    gpio_int_cb                              0x00400c30   Data           4  gpio.o(.data)
    .data                                    0x00400c5c   Section        8  oads.o(.data)
    oad_uid_check_status                     0x00400c5c   Data           1  oads.o(.data)
    oadBlkNum                                0x00400c5e   Data           2  oads.o(.data)
    oadBlkTot                                0x00400c60   Data           2  oads.o(.data)
    validBlockCnt                            0x00400c62   Data           2  oads.o(.data)
    .data                                    0x00400c64   Section        1  app_task.o(.data)
    wait_cnt                                 0x00400c64   Data           1  app_task.o(.data)
    .data                                    0x00400c65   Section        1  app_task.o(.data)
    .data                                    0x00400c66   Section       14  app_mesh.o(.data)
    config_num                               0x00400c66   Data           2  app_mesh.o(.data)
    config_model_id                          0x00400c68   Data          12  app_mesh.o(.data)
    .data                                    0x00400c74   Section        2  app_batt.o(.data)
    .data                                    0x00400c76   Section        2  app_fff0.o(.data)
    .data                                    0x00400c78   Section        1  app_oads.o(.data)
    .data                                    0x00400c7a   Section       12  app_light_ali_server.o(.data)
    prov_flash_count                         0x00400c7a   Data           1  app_light_ali_server.o(.data)
    prov_flash_count                         0x00400c7b   Data           1  app_light_ali_server.o(.data)
    unbind_flash_count                       0x00400c7c   Data           1  app_light_ali_server.o(.data)
    flag                                     0x00400c7d   Data           1  app_light_ali_server.o(.data)
    cur_scene_num                            0x00400c84   Data           2  app_light_ali_server.o(.data)
    .data                                    0x00400c86   Section        1  app_light_ali_server.o(.data)
    .data                                    0x00400c88   Section       42  led.o(.data)
    testCount                                0x00400c9c   Data           4  led.o(.data)
    .data                                    0x00400cb4   Section        8  m_api.o(.data)
    .data                                    0x00400cbc   Section        4  mesh_api.o(.data)
    .data                                    0x00400cc0   Section        4  mm_api.o(.data)
    .data                                    0x00400cc4   Section        4  m_fnd_blob_transfer.o(.data)
    p_m_fnd_blob_env                         0x00400cc4   Data           4  m_fnd_blob_transfer.o(.data)
    .data                                    0x00400cc8   Section        8  m_fnd_fw_update.o(.data)
    p_m_fnd_fw_update_env                    0x00400ccc   Data           4  m_fnd_fw_update.o(.data)
    .data                                    0x00400cd0   Section        4  m_fnd_scenes.o(.data)
    p_m_fnd_env                              0x00400cd0   Data           4  m_fnd_scenes.o(.data)
    .data                                    0x00400cd4   Section        2  mm_vendors.o(.data)
    is_cfm_msg_recved                        0x00400cd4   Data           1  mm_vendors.o(.data)
    vdr_lid                                  0x00400cd5   Data           1  mm_vendors.o(.data)
    .data                                    0x00400cd6   Section        1  ais_task.o(.data)
    .data                                    0x00400cd8   Section       71  gma.o(.data)
    .data                                    0x00400d20   Section       38  rf_pn9_test.o(.data)
    tst_mode                                 0x00400d20   Data           1  rf_pn9_test.o(.data)
    .data                                    0x00400d46   Section        3  lld_adv_test.o(.data)
    .data                                    0x00400d4c   Section        4  mal.o(.data)
    .data                                    0x00400d50   Section        4  mesh_tb_buf.o(.data)
    p_mesh_tb_buf_env                        0x00400d50   Data           4  mesh_tb_buf.o(.data)
    .data                                    0x00400d54   Section        4  mesh_tb_timer.o(.data)
    p_mesh_tb_timer_env                      0x00400d54   Data           4  mesh_tb_timer.o(.data)
    .data                                    0x00400d58   Section        4  m_bcn.o(.data)
    p_m_bcn_env                              0x00400d58   Data           4  m_bcn.o(.data)
    .data                                    0x00400d5c   Section        4  m_bearer.o(.data)
    .data                                    0x00400d60   Section        4  m_fnd_hlths.o(.data)
    p_m_fnd_hlths_env                        0x00400d60   Data           4  m_fnd_hlths.o(.data)
    .data                                    0x00400d64   Section        4  m_lay_access.o(.data)
    p_m_lay_access_env                       0x00400d64   Data           4  m_lay_access.o(.data)
    .data                                    0x00400d68   Section        4  m_lay_proxy.o(.data)
    .data                                    0x00400d6c   Section        8  m_prov.o(.data)
    .data                                    0x00400d74   Section        4  m_tb_key.o(.data)
    p_m_tb_key_env                           0x00400d74   Data           4  m_tb_key.o(.data)
    .data                                    0x00400d78   Section        4  m_tb_mio.o(.data)
    p_m_tb_mio_env                           0x00400d78   Data           4  m_tb_mio.o(.data)
    .data                                    0x00400d7c   Section        8  m_tb_store_nvds.o(.data)
    is_store_nvs                             0x00400d7c   Data           1  m_tb_store_nvds.o(.data)
    p_m_tb_store_env                         0x00400d80   Data           4  m_tb_store_nvds.o(.data)
    .data                                    0x00400d84   Section        4  m_tb_state.o(.data)
    p_m_tb_state_env                         0x00400d84   Data           4  m_tb_state.o(.data)
    .data                                    0x00400d88   Section        4  mm_tb_bind.o(.data)
    p_mm_tb_bind_env                         0x00400d88   Data           4  mm_tb_bind.o(.data)
    .data                                    0x00400d8c   Section        4  mm_tb_replay.o(.data)
    p_mm_tb_replay_env                       0x00400d8c   Data           4  mm_tb_replay.o(.data)
    .data                                    0x00400d90   Section        4  mm_route.o(.data)
    p_mm_route_env                           0x00400d90   Data           4  mm_route.o(.data)
    .data                                    0x00400d94   Section        4  mm_tb_state.o(.data)
    p_mm_tb_state_env                        0x00400d94   Data           4  mm_tb_state.o(.data)
    .data                                    0x00400d98   Section        4  mal_adv.o(.data)
    mal_adv_cb                               0x00400d98   Data           4  mal_adv.o(.data)
    .data                                    0x00400d9c   Section        4  mesh_tb_sec.o(.data)
    p_mesh_tb_sec_env                        0x00400d9c   Data           4  mesh_tb_sec.o(.data)
    .data                                    0x00400da0   Section        4  m_fnd_confs.o(.data)
    p_m_fnd_confs_env                        0x00400da0   Data           4  m_fnd_confs.o(.data)
    .data                                    0x00400da4   Section        4  m_lay_hb.o(.data)
    p_m_lay_hb_env                           0x00400da4   Data           4  m_lay_hb.o(.data)
    .data                                    0x00400da8   Section        4  m_lay_ltrans.o(.data)
    p_m_lay_ltrans_env                       0x00400da8   Data           4  m_lay_ltrans.o(.data)
    .data                                    0x00400dac   Section        8  m_lay_net.o(.data)
    net_tx_done_congest                      0x00400dac   Data           1  m_lay_net.o(.data)
    p_m_lay_net_env                          0x00400db0   Data           4  m_lay_net.o(.data)
    .data                                    0x00400db4   Section        4  m_lay_utrans.o(.data)
    p_m_lay_utrans_env                       0x00400db4   Data           4  m_lay_utrans.o(.data)
    .data                                    0x00400db8   Section        1  m_prov_adv_trans.o(.data)
    .bss                                     0x00400dbc   Section       16  arch_main_1.o(.bss)
    .bss                                     0x00400dcc   Section      129  mesh_log.o(.bss)
    str                                      0x00400dcc   Data         129  mesh_log.o(.bss)
    .bss                                     0x00400e50   Section    28848  rwip.o(.bss)
    rwip_env                                 0x00400e50   Data          16  rwip.o(.bss)
    .bss                                     0x00407f00   Section      812  uart.o(.bss)
    .bss                                     0x0040822c   Section       12  flash.o(.bss)
    .bss                                     0x00408238   Section       64  rf_xvr.o(.bss)
    .bss                                     0x00408278   Section       40  gpio.o(.bss)
    .bss                                     0x004082a0   Section       20  pwm.o(.bss)
    p_PWM_Int_Handler                        0x004082a0   Data          20  pwm.o(.bss)
    .bss                                     0x004082b4   Section      192  oads.o(.bss)
    .bss                                     0x00408374   Section      240  prf.o(.bss)
    .bss                                     0x00408464   Section       40  app.o(.bss)
    .bss                                     0x0040848c   Section       28  app_mesh.o(.bss)
    .bss                                     0x004084a8   Section     1040  oad_common.o(.bss)
    .bss                                     0x004088b8   Section      162  app_light_ali_server.o(.bss)
    scene_num                                0x00408950   Data          10  app_light_ali_server.o(.bss)
    .bss                                     0x0040895c   Section      116  led.o(.bss)
    LED_pwm_current                          0x0040895c   Data          10  led.o(.bss)
    LED_pwm_move_step                        0x00408966   Data          10  led.o(.bss)
    .bss                                     0x004089d0   Section       48  mesh_param_int.o(.bss)
    .bss                                     0x00408a00   Section     4123  m_fnd_blob_transfer.o(.bss)
    ota_info                                 0x00408a00   Data          27  m_fnd_blob_transfer.o(.bss)
    .bss                                     0x00409a1b   Section       27  m_fnd_fw_update.o(.bss)
    fw_ota_info                              0x00409a1b   Data          27  m_fnd_fw_update.o(.bss)
    .bss                                     0x00409a38   Section     1046  gma.o(.bss)
    gma_ota_data                             0x00409c3b   Data         531  gma.o(.bss)
    .bss                                     0x00409e50   Section      464  lld_adv_test.o(.bss)
    .bss                                     0x0040a020   Section       24  aes.o(.bss)
    .bss                                     0x0040a038   Section       96  libspace.o(.bss)
    Myheap                                   0x0040a098   Section      256  boot_handlers.o(Myheap)
    bottom_of_heap                           0x0040a098   Data         256  boot_handlers.o(Myheap)

    Global Symbols

    Symbol Name                              Value     Ov Type        Size  Object(Section)

    BuildAttributes$$THM_ISAv2$ARM_ISAv5$E$P$S$PE$A:L22$X:L11$S22$IEEE1$IW$USESV6$~STKCKD$USESV7$~SHL$OTIME$ROPI$IEEEJ$EBA8$UX$STANDARDLIB$REQ8$PRES8$EABIv2 0x00000000   Number         0  anon$$obj.o ABSOLUTE
    Image$$RAM_BSS$$Length                   0x00000000   Number         0  anon$$obj.o ABSOLUTE
    __ARM_use_no_argv                        0x00000000   Number         0  arch_main_1.o ABSOLUTE
    _printf_flags                            0x00000000   Number         0  printf_stubs.o ABSOLUTE
    _printf_return_value                     0x00000000   Number         0  printf_stubs.o ABSOLUTE
    _printf_sizespec                         0x00000000   Number         0  printf_stubs.o ABSOLUTE
    _printf_widthprec                        0x00000000   Number         0  printf_stubs.o ABSOLUTE
    __ARM_exceptions_init                     - Undefined Weak Reference
    __alloca_initialize                       - Undefined Weak Reference
    __arm_preinit_                            - Undefined Weak Reference
    __cpp_initialize__aeabi_                  - Undefined Weak Reference
    __cxa_finalize                            - Undefined Weak Reference
    __sigvec_lookup                           - Undefined Weak Reference
    _atexit_init                              - Undefined Weak Reference
    _call_atexit_fns                          - Undefined Weak Reference
    _clock_init                               - Undefined Weak Reference
    _fp_trap_init                             - Undefined Weak Reference
    _fp_trap_shutdown                         - Undefined Weak Reference
    _get_lc_collate                           - Undefined Weak Reference
    _get_lc_monetary                          - Undefined Weak Reference
    _get_lc_time                              - Undefined Weak Reference
    _getenv_init                              - Undefined Weak Reference
    _handle_redirection                       - Undefined Weak Reference
    _init_alloc                               - Undefined Weak Reference
    _init_user_alloc                          - Undefined Weak Reference
    _initio                                   - Undefined Weak Reference
    _printf_mbtowc                            - Undefined Weak Reference
    _printf_wc                                - Undefined Weak Reference
    _rand_init                                - Undefined Weak Reference
    _signal_finish                            - Undefined Weak Reference
    _signal_init                              - Undefined Weak Reference
    _terminate_alloc                          - Undefined Weak Reference
    _terminate_user_alloc                     - Undefined Weak Reference
    _terminateio                              - Undefined Weak Reference
    Image$$RAM_STACK_UNUSED$$ZI$$Length      0x00000100   Number         0  anon$$obj.o ABSOLUTE
    Image$$RAM_DATA$$Length                  0x000001bc   Number         0  anon$$obj.o ABSOLUTE
    Image$$RAM_STACK_FIQ$$ZI$$Length         0x00000500   Number         0  anon$$obj.o ABSOLUTE
    Image$$RAM_STACK_IRQ$$ZI$$Length         0x00000500   Number         0  anon$$obj.o ABSOLUTE
    Image$$RAM_STACK_SVC$$ZI$$Length         0x00001000   Number         0  anon$$obj.o ABSOLUTE
    uart_stack_register                      0x000031a5   Thumb Code     0  stack_rom_symbol.txt ABSOLUTE
    Undefined_Exception                      0x000031ed   Thumb Code     0  stack_rom_symbol.txt ABSOLUTE
    SoftwareInterrupt_Exception              0x000031ef   Thumb Code     0  stack_rom_symbol.txt ABSOLUTE
    PrefetchAbort_Exception                  0x000031f1   Thumb Code     0  stack_rom_symbol.txt ABSOLUTE
    DataAbort_Exception                      0x000031f3   Thumb Code     0  stack_rom_symbol.txt ABSOLUTE
    Reserved_Exception                       0x000031f5   Thumb Code     0  stack_rom_symbol.txt ABSOLUTE
    ke_init                                  0x00003261   Thumb Code     0  stack_rom_symbol.txt ABSOLUTE
    ke_flush                                 0x000032ab   Thumb Code     0  stack_rom_symbol.txt ABSOLUTE
    ke_sleep_check                           0x000032ed   Thumb Code     0  stack_rom_symbol.txt ABSOLUTE
    ke_stats_get                             0x000032ff   Thumb Code     0  stack_rom_symbol.txt ABSOLUTE
    ke_event_init                            0x000033b1   Thumb Code     0  stack_rom_symbol.txt ABSOLUTE
    ke_event_callback_set                    0x000033bd   Thumb Code     0  stack_rom_symbol.txt ABSOLUTE
    ke_event_set                             0x000033e7   Thumb Code     0  stack_rom_symbol.txt ABSOLUTE
    ke_event_clear                           0x00003427   Thumb Code     0  stack_rom_symbol.txt ABSOLUTE
    ke_event_get                             0x00003467   Thumb Code     0  stack_rom_symbol.txt ABSOLUTE
    ke_event_get_all                         0x000034a9   Thumb Code     0  stack_rom_symbol.txt ABSOLUTE
    ke_event_flush                           0x000034af   Thumb Code     0  stack_rom_symbol.txt ABSOLUTE
    ke_event_schedule                        0x000034b7   Thumb Code     0  stack_rom_symbol.txt ABSOLUTE
    ke_mem_init                              0x00003511   Thumb Code     0  stack_rom_symbol.txt ABSOLUTE
    ke_mem_is_empty                          0x00003573   Thumb Code     0  stack_rom_symbol.txt ABSOLUTE
    ke_check_malloc                          0x000035b9   Thumb Code     0  stack_rom_symbol.txt ABSOLUTE
    ke_malloc                                0x0000364d   Thumb Code     0  stack_rom_symbol.txt ABSOLUTE
    ke_free                                  0x0000375b   Thumb Code     0  stack_rom_symbol.txt ABSOLUTE
    ke_is_free                               0x0000383f   Thumb Code     0  stack_rom_symbol.txt ABSOLUTE
    ke_get_mem_usage                         0x00003851   Thumb Code     0  stack_rom_symbol.txt ABSOLUTE
    ke_get_max_mem_usage                     0x0000385d   Thumb Code     0  stack_rom_symbol.txt ABSOLUTE
    ke_msg_alloc                             0x00003881   Thumb Code     0  stack_rom_symbol.txt ABSOLUTE
    ke_msg_send                              0x000038b3   Thumb Code     0  stack_rom_symbol.txt ABSOLUTE
    ke_msg_send_basic                        0x000038e5   Thumb Code     0  stack_rom_symbol.txt ABSOLUTE
    ke_msg_forward                           0x000038f3   Thumb Code     0  stack_rom_symbol.txt ABSOLUTE
    ke_msg_forward_new_id                    0x000038fd   Thumb Code     0  stack_rom_symbol.txt ABSOLUTE
    ke_msg_free                              0x0000390d   Thumb Code     0  stack_rom_symbol.txt ABSOLUTE
    ke_msg_dest_id_get                       0x00003915   Thumb Code     0  stack_rom_symbol.txt ABSOLUTE
    ke_msg_src_id_get                        0x0000391b   Thumb Code     0  stack_rom_symbol.txt ABSOLUTE
    ke_msg_in_queue                          0x00003921   Thumb Code     0  stack_rom_symbol.txt ABSOLUTE
    ke_queue_extract                         0x00003931   Thumb Code     0  stack_rom_symbol.txt ABSOLUTE
    ke_queue_insert                          0x00003981   Thumb Code     0  stack_rom_symbol.txt ABSOLUTE
    ke_task_init                             0x00003afd   Thumb Code     0  stack_rom_symbol.txt ABSOLUTE
    ke_task_create                           0x00003b11   Thumb Code     0  stack_rom_symbol.txt ABSOLUTE
    ke_task_delete                           0x00003b61   Thumb Code     0  stack_rom_symbol.txt ABSOLUTE
    ke_state_set                             0x00003b97   Thumb Code     0  stack_rom_symbol.txt ABSOLUTE
    ke_state_get                             0x00003c45   Thumb Code     0  stack_rom_symbol.txt ABSOLUTE
    ke_msg_discard                           0x00003c9b   Thumb Code     0  stack_rom_symbol.txt ABSOLUTE
    ke_msg_save                              0x00003c9f   Thumb Code     0  stack_rom_symbol.txt ABSOLUTE
    ke_task_msg_flush                        0x00003ca3   Thumb Code     0  stack_rom_symbol.txt ABSOLUTE
    ke_task_check                            0x00003ce5   Thumb Code     0  stack_rom_symbol.txt ABSOLUTE
    ke_timer_init                            0x00003edb   Thumb Code     0  stack_rom_symbol.txt ABSOLUTE
    ke_timer_set                             0x00003ee7   Thumb Code     0  stack_rom_symbol.txt ABSOLUTE
    ke_timer_clear                           0x00003f7b   Thumb Code     0  stack_rom_symbol.txt ABSOLUTE
    ke_timer_active                          0x00003fd1   Thumb Code     0  stack_rom_symbol.txt ABSOLUTE
    ke_timer_adjust_all                      0x00003ff7   Thumb Code     0  stack_rom_symbol.txt ABSOLUTE
    ke_timer_target_get                      0x0000400b   Thumb Code     0  stack_rom_symbol.txt ABSOLUTE
    ke_timer_sleep_check                     0x0000401d   Thumb Code     0  stack_rom_symbol.txt ABSOLUTE
    ecc_init                                 0x0000555b   Thumb Code     0  stack_rom_symbol.txt ABSOLUTE
    dbg_init                                 0x00005a29   Thumb Code     0  stack_rom_symbol.txt ABSOLUTE
    dbg_platform_reset_complete              0x00005a41   Thumb Code     0  stack_rom_symbol.txt ABSOLUTE
    dbg_swdiag_init                          0x00005acf   Thumb Code     0  stack_rom_symbol.txt ABSOLUTE
    dbg_swdiag_read                          0x00005af5   Thumb Code     0  stack_rom_symbol.txt ABSOLUTE
    dbg_swdiag_write                         0x00005b0d   Thumb Code     0  stack_rom_symbol.txt ABSOLUTE
    nvds_init                                0x00006129   Thumb Code     0  stack_rom_symbol.txt ABSOLUTE
    nvds_deinit                              0x00006173   Thumb Code     0  stack_rom_symbol.txt ABSOLUTE
    nvds_get                                 0x00006181   Thumb Code     0  stack_rom_symbol.txt ABSOLUTE
    nvds_del                                 0x000061bf   Thumb Code     0  stack_rom_symbol.txt ABSOLUTE
    nvds_lock                                0x000061f3   Thumb Code     0  stack_rom_symbol.txt ABSOLUTE
    nvds_put                                 0x0000621f   Thumb Code     0  stack_rom_symbol.txt ABSOLUTE
    co_list_init                             0x00006425   Thumb Code     0  stack_rom_symbol.txt ABSOLUTE
    co_list_push_back                        0x00006435   Thumb Code     0  stack_rom_symbol.txt ABSOLUTE
    co_list_pool_init                        0x0000646d   Thumb Code     0  stack_rom_symbol.txt ABSOLUTE
    co_list_push_front                       0x000064e3   Thumb Code     0  stack_rom_symbol.txt ABSOLUTE
    co_list_pop_front                        0x00006513   Thumb Code     0  stack_rom_symbol.txt ABSOLUTE
    co_list_extract                          0x00006535   Thumb Code     0  stack_rom_symbol.txt ABSOLUTE
    co_list_extract_after                    0x000065d9   Thumb Code     0  stack_rom_symbol.txt ABSOLUTE
    co_list_find                             0x0000664b   Thumb Code     0  stack_rom_symbol.txt ABSOLUTE
    co_list_merge                            0x00006661   Thumb Code     0  stack_rom_symbol.txt ABSOLUTE
    co_list_insert_before                    0x0000669d   Thumb Code     0  stack_rom_symbol.txt ABSOLUTE
    co_list_insert_after                     0x000066ed   Thumb Code     0  stack_rom_symbol.txt ABSOLUTE
    co_list_size                             0x00006747   Thumb Code     0  stack_rom_symbol.txt ABSOLUTE
    co_list_check_size_available             0x0000675d   Thumb Code     0  stack_rom_symbol.txt ABSOLUTE
    co_list_push_back_sublist                0x00006779   Thumb Code     0  stack_rom_symbol.txt ABSOLUTE
    co_bytes_to_string                       0x000068b9   Thumb Code     0  stack_rom_symbol.txt ABSOLUTE
    co_bdaddr_compare                        0x000068f5   Thumb Code     0  stack_rom_symbol.txt ABSOLUTE
    co_util_pack                             0x0000694d   Thumb Code     0  stack_rom_symbol.txt ABSOLUTE
    co_util_unpack                           0x00006b31   Thumb Code     0  stack_rom_symbol.txt ABSOLUTE
    em_buf_init                              0x00006d91   Thumb Code     0  stack_rom_symbol.txt ABSOLUTE
    em_buf_rx_free                           0x00006e5d   Thumb Code     0  stack_rom_symbol.txt ABSOLUTE
    em_buf_rx_buff_addr_get                  0x00006e6f   Thumb Code     0  stack_rom_symbol.txt ABSOLUTE
    em_buf_tx_buff_addr_get                  0x00006e7f   Thumb Code     0  stack_rom_symbol.txt ABSOLUTE
    em_buf_tx_free                           0x00006e87   Thumb Code     0  stack_rom_symbol.txt ABSOLUTE
    llc_init                                 0x00006f21   Thumb Code     0  stack_rom_symbol.txt ABSOLUTE
    llc_stop                                 0x00006f4f   Thumb Code     0  stack_rom_symbol.txt ABSOLUTE
    llc_reset                                0x00006fad   Thumb Code     0  stack_rom_symbol.txt ABSOLUTE
    llc_le_con_cmp_evt_send                  0x00006fd3   Thumb Code     0  stack_rom_symbol.txt ABSOLUTE
    llc_start                                0x00007269   Thumb Code     0  stack_rom_symbol.txt ABSOLUTE
    llc_discon_event_complete_send           0x000073d3   Thumb Code     0  stack_rom_symbol.txt ABSOLUTE
    llc_con_update_complete_send             0x000073f3   Thumb Code     0  stack_rom_symbol.txt ABSOLUTE
    llc_ltk_req_send                         0x00007451   Thumb Code     0  stack_rom_symbol.txt ABSOLUTE
    llc_feats_rd_event_send                  0x00007489   Thumb Code     0  stack_rom_symbol.txt ABSOLUTE
    llc_version_rd_event_send                0x000074c5   Thumb Code     0  stack_rom_symbol.txt ABSOLUTE
    llc_common_cmd_complete_send             0x000074f5   Thumb Code     0  stack_rom_symbol.txt ABSOLUTE
    llc_common_cmd_status_send               0x00007513   Thumb Code     0  stack_rom_symbol.txt ABSOLUTE
    llc_common_flush_occurred_send           0x0000752f   Thumb Code     0  stack_rom_symbol.txt ABSOLUTE
    llc_common_enc_key_ref_comp_evt_send     0x00007547   Thumb Code     0  stack_rom_symbol.txt ABSOLUTE
    llc_common_enc_change_evt_send           0x00007563   Thumb Code     0  stack_rom_symbol.txt ABSOLUTE
    llc_common_nb_of_pkt_comp_evt_send       0x000075cb   Thumb Code     0  stack_rom_symbol.txt ABSOLUTE
    llc_con_update_ind                       0x000075eb   Thumb Code     0  stack_rom_symbol.txt ABSOLUTE
    llc_lsto_con_update                      0x00007627   Thumb Code     0  stack_rom_symbol.txt ABSOLUTE
    llc_map_update_ind                       0x00007659   Thumb Code     0  stack_rom_symbol.txt ABSOLUTE
    llc_con_update_finished                  0x000076b7   Thumb Code     0  stack_rom_symbol.txt ABSOLUTE
    llc_map_update_finished                  0x00007775   Thumb Code     0  stack_rom_symbol.txt ABSOLUTE
    llc_hci_command_handler                  0x0000815f   Thumb Code     0  stack_rom_symbol.txt ABSOLUTE
    llc_hci_acl_data_tx_handler              0x0000818d   Thumb Code     0  stack_rom_symbol.txt ABSOLUTE
    llc_llcp_version_ind_pdu_send            0x0000829f   Thumb Code     0  stack_rom_symbol.txt ABSOLUTE
    llc_llcp_ch_map_update_pdu_send          0x000082bd   Thumb Code     0  stack_rom_symbol.txt ABSOLUTE
    llc_llcp_pause_enc_req_pdu_send          0x000082f9   Thumb Code     0  stack_rom_symbol.txt ABSOLUTE
    llc_llcp_pause_enc_rsp_pdu_send          0x00008327   Thumb Code     0  stack_rom_symbol.txt ABSOLUTE
    llc_llcp_enc_req_pdu_send                0x0000835d   Thumb Code     0  stack_rom_symbol.txt ABSOLUTE
    llc_llcp_enc_rsp_pdu_send                0x00008447   Thumb Code     0  stack_rom_symbol.txt ABSOLUTE
    llc_llcp_start_enc_rsp_pdu_send          0x000084d7   Thumb Code     0  stack_rom_symbol.txt ABSOLUTE
    llc_llcp_reject_ind_pdu_send             0x00008501   Thumb Code     0  stack_rom_symbol.txt ABSOLUTE
    llc_llcp_con_update_pdu_send             0x00008551   Thumb Code     0  stack_rom_symbol.txt ABSOLUTE
    llc_llcp_con_param_req_pdu_send          0x0000857d   Thumb Code     0  stack_rom_symbol.txt ABSOLUTE
    llc_llcp_con_param_rsp_pdu_send          0x000085c5   Thumb Code     0  stack_rom_symbol.txt ABSOLUTE
    llc_llcp_feats_req_pdu_send              0x0000860b   Thumb Code     0  stack_rom_symbol.txt ABSOLUTE
    llc_llcp_feats_rsp_pdu_send              0x00008675   Thumb Code     0  stack_rom_symbol.txt ABSOLUTE
    llc_llcp_start_enc_req_pdu_send          0x00008695   Thumb Code     0  stack_rom_symbol.txt ABSOLUTE
    llc_llcp_terminate_ind_pdu_send          0x000086a7   Thumb Code     0  stack_rom_symbol.txt ABSOLUTE
    llc_llcp_unknown_rsp_send_pdu            0x0000870b   Thumb Code     0  stack_rom_symbol.txt ABSOLUTE
    llc_llcp_ping_req_pdu_send               0x00008721   Thumb Code     0  stack_rom_symbol.txt ABSOLUTE
    llc_llcp_ping_rsp_pdu_send               0x00008733   Thumb Code     0  stack_rom_symbol.txt ABSOLUTE
    llc_llcp_length_req_pdu_send             0x00008745   Thumb Code     0  stack_rom_symbol.txt ABSOLUTE
    llc_llcp_length_rsp_pdu_send             0x0000876f   Thumb Code     0  stack_rom_symbol.txt ABSOLUTE
    llc_llcp_recv_handler                    0x00008921   Thumb Code     0  stack_rom_symbol.txt ABSOLUTE
    Image$$RAM_BSS$$ZI$$Length               0x000093dc   Number         0  anon$$obj.o ABSOLUTE
    llc_llcp_get_autorize                    0x00009aef   Thumb Code     0  stack_rom_symbol.txt ABSOLUTE
    llc_util_get_free_conhdl                 0x0000a3ad   Thumb Code     0  stack_rom_symbol.txt ABSOLUTE
    llc_util_get_nb_active_link              0x0000a3d7   Thumb Code     0  stack_rom_symbol.txt ABSOLUTE
    llc_util_dicon_procedure                 0x0000a401   Thumb Code     0  stack_rom_symbol.txt ABSOLUTE
    llc_util_update_channel_map              0x0000a441   Thumb Code     0  stack_rom_symbol.txt ABSOLUTE
    llc_util_set_llcp_discard_enable         0x0000a453   Thumb Code     0  stack_rom_symbol.txt ABSOLUTE
    llc_util_set_auth_payl_to_margin         0x0000a46b   Thumb Code     0  stack_rom_symbol.txt ABSOLUTE
    llc_util_clear_operation_ptr             0x0000a497   Thumb Code     0  stack_rom_symbol.txt ABSOLUTE
    llc_util_bw_mgt                          0x0000a4df   Thumb Code     0  stack_rom_symbol.txt ABSOLUTE
    llc_end_evt_defer                        0x0000a533   Thumb Code     0  stack_rom_symbol.txt ABSOLUTE
    llc_pdu_llcp_tx_ack_defer                0x0000a589   Thumb Code     0  stack_rom_symbol.txt ABSOLUTE
    llc_pdu_acl_tx_ack_defer                 0x0000a68b   Thumb Code     0  stack_rom_symbol.txt ABSOLUTE
    llc_pdu_defer                            0x0000a6bf   Thumb Code     0  stack_rom_symbol.txt ABSOLUTE
    lld_init                                 0x0000a86d   Thumb Code     0  stack_rom_symbol.txt ABSOLUTE
    lld_core_reset                           0x0000aa07   Thumb Code     0  stack_rom_symbol.txt ABSOLUTE
    lld_adv_start                            0x0000aa97   Thumb Code     0  stack_rom_symbol.txt ABSOLUTE
    lld_adv_stop                             0x0000ae5b   Thumb Code     0  stack_rom_symbol.txt ABSOLUTE
    lld_con_update_after_param_req           0x0000ae83   Thumb Code     0  stack_rom_symbol.txt ABSOLUTE
    lld_con_param_rsp                        0x0000b0bd   Thumb Code     0  stack_rom_symbol.txt ABSOLUTE
    lld_con_param_req                        0x0000b1b1   Thumb Code     0  stack_rom_symbol.txt ABSOLUTE
    lld_con_stop                             0x0000b271   Thumb Code     0  stack_rom_symbol.txt ABSOLUTE
    lld_get_mode                             0x0000b27d   Thumb Code     0  stack_rom_symbol.txt ABSOLUTE
    lld_move_to_slave                        0x0000b2b3   Thumb Code     0  stack_rom_symbol.txt ABSOLUTE
    lld_ch_map_ind                           0x0000b3cd   Thumb Code     0  stack_rom_symbol.txt ABSOLUTE
    lld_con_update_ind                       0x0000b40d   Thumb Code     0  stack_rom_symbol.txt ABSOLUTE
    lld_crypt_isr                            0x0000b41b   Thumb Code     0  stack_rom_symbol.txt ABSOLUTE
    lld_ral_renew_req                        0x0000b425   Thumb Code     0  stack_rom_symbol.txt ABSOLUTE
    lld_evt_elt_delete                       0x0000b4cd   Thumb Code     0  stack_rom_symbol.txt ABSOLUTE
    lld_evt_drift_compute                    0x0000b75f   Thumb Code     0  stack_rom_symbol.txt ABSOLUTE
    lld_evt_delete_elt_push                  0x0000b8a5   Thumb Code     0  stack_rom_symbol.txt ABSOLUTE
    lld_evt_get_next_free_slot               0x0000baad   Thumb Code     0  stack_rom_symbol.txt ABSOLUTE
    lld_evt_channel_next                     0x0000bae1   Thumb Code     0  stack_rom_symbol.txt ABSOLUTE
    lld_evt_deffered_elt_handler             0x0000bb1b   Thumb Code     0  stack_rom_symbol.txt ABSOLUTE
    lld_evt_init                             0x0000bbeb   Thumb Code     0  stack_rom_symbol.txt ABSOLUTE
    lld_evt_init_evt                         0x0000bc71   Thumb Code     0  stack_rom_symbol.txt ABSOLUTE
    lld_evt_restart                          0x0000bcf1   Thumb Code     0  stack_rom_symbol.txt ABSOLUTE
    lld_evt_elt_insert                       0x0000c0a5   Thumb Code     0  stack_rom_symbol.txt ABSOLUTE
    lld_evt_schedule_next                    0x0000c137   Thumb Code     0  stack_rom_symbol.txt ABSOLUTE
    lld_evt_schedule                         0x0000c2c7   Thumb Code     0  stack_rom_symbol.txt ABSOLUTE
    lld_evt_prevent_stop                     0x0000c3cf   Thumb Code     0  stack_rom_symbol.txt ABSOLUTE
    lld_evt_canceled                         0x0000c3d1   Thumb Code     0  stack_rom_symbol.txt ABSOLUTE
    lld_evt_move_to_slave                    0x0000c413   Thumb Code     0  stack_rom_symbol.txt ABSOLUTE
    lld_evt_slave_update                     0x0000c6eb   Thumb Code     0  stack_rom_symbol.txt ABSOLUTE
    lld_evt_adv_create                       0x0000c839   Thumb Code     0  stack_rom_symbol.txt ABSOLUTE
    lld_evt_end                              0x0000c8a9   Thumb Code     0  stack_rom_symbol.txt ABSOLUTE
    lld_evt_rx                               0x0000ca0d   Thumb Code     0  stack_rom_symbol.txt ABSOLUTE
    lld_evt_timer_isr                        0x0000ca81   Thumb Code     0  stack_rom_symbol.txt ABSOLUTE
    lld_evt_start_scan_sch                   0x0000ca8b   Thumb Code     0  stack_rom_symbol.txt ABSOLUTE
    lld_evt_end_isr                          0x0000cb29   Thumb Code     0  stack_rom_symbol.txt ABSOLUTE
    lld_evt_rx_isr                           0x0000cba1   Thumb Code     0  stack_rom_symbol.txt ABSOLUTE
    lld_pdu_data_tx_push                     0x0000cd0d   Thumb Code     0  stack_rom_symbol.txt ABSOLUTE
    lld_pdu_check                            0x0000d29d   Thumb Code     0  stack_rom_symbol.txt ABSOLUTE
    lld_pdu_tx_loop                          0x0000d491   Thumb Code     0  stack_rom_symbol.txt ABSOLUTE
    lld_pdu_data_send                        0x0000d50f   Thumb Code     0  stack_rom_symbol.txt ABSOLUTE
    lld_pdu_tx_push                          0x0000d567   Thumb Code     0  stack_rom_symbol.txt ABSOLUTE
    lld_pdu_tx_prog                          0x0000d645   Thumb Code     0  stack_rom_symbol.txt ABSOLUTE
    lld_pdu_tx_flush                         0x0000dad1   Thumb Code     0  stack_rom_symbol.txt ABSOLUTE
    lld_pdu_adv_pack                         0x0000db41   Thumb Code     0  stack_rom_symbol.txt ABSOLUTE
    lld_pdu_rx_handler                       0x0000db85   Thumb Code     0  stack_rom_symbol.txt ABSOLUTE
    lld_sleep_init                           0x0000ddff   Thumb Code     0  stack_rom_symbol.txt ABSOLUTE
    lld_sleep_enter                          0x0000decf   Thumb Code     0  stack_rom_symbol.txt ABSOLUTE
    lld_sleep_wakeup                         0x0000df0f   Thumb Code     0  stack_rom_symbol.txt ABSOLUTE
    lld_sleep_wakeup_end                     0x0000df29   Thumb Code     0  stack_rom_symbol.txt ABSOLUTE
    lld_util_instant_get                     0x0000e011   Thumb Code     0  stack_rom_symbol.txt ABSOLUTE
    lld_util_get_bd_address                  0x0000e02f   Thumb Code     0  stack_rom_symbol.txt ABSOLUTE
    lld_util_set_bd_address                  0x0000e04f   Thumb Code     0  stack_rom_symbol.txt ABSOLUTE
    lld_util_ral_force_rpa_renew             0x0000e09d   Thumb Code     0  stack_rom_symbol.txt ABSOLUTE
    lld_util_freq2chnl                       0x0000e0dd   Thumb Code     0  stack_rom_symbol.txt ABSOLUTE
    lld_util_get_local_offset                0x0000e101   Thumb Code     0  stack_rom_symbol.txt ABSOLUTE
    lld_util_get_peer_offset                 0x0000e11f   Thumb Code     0  stack_rom_symbol.txt ABSOLUTE
    lld_util_connection_param_set            0x0000e13f   Thumb Code     0  stack_rom_symbol.txt ABSOLUTE
    lld_util_dle_set_cs_fields               0x0000e189   Thumb Code     0  stack_rom_symbol.txt ABSOLUTE
    lld_util_anchor_point_move               0x0000e1a9   Thumb Code     0  stack_rom_symbol.txt ABSOLUTE
    lld_util_flush_list                      0x0000e279   Thumb Code     0  stack_rom_symbol.txt ABSOLUTE
    lld_util_instant_ongoing                 0x0000e28f   Thumb Code     0  stack_rom_symbol.txt ABSOLUTE
    lld_util_compute_ce_max                  0x0000e29b   Thumb Code     0  stack_rom_symbol.txt ABSOLUTE
    lld_util_elt_programmed                  0x0000e329   Thumb Code     0  stack_rom_symbol.txt ABSOLUTE
    lld_util_priority_set                    0x0000e347   Thumb Code     0  stack_rom_symbol.txt ABSOLUTE
    lld_util_priority_update                 0x0000e399   Thumb Code     0  stack_rom_symbol.txt ABSOLUTE
    lld_util_get_tx_pkt_cnt                  0x0000e3a1   Thumb Code     0  stack_rom_symbol.txt ABSOLUTE
    lld_util_eff_tx_time_set                 0x0000e401   Thumb Code     0  stack_rom_symbol.txt ABSOLUTE
    llm_ral_clear                            0x0000e5eb   Thumb Code     0  stack_rom_symbol.txt ABSOLUTE
    llm_wl_clr                               0x0000e60b   Thumb Code     0  stack_rom_symbol.txt ABSOLUTE
    llm_encryption_start                     0x0000e65f   Thumb Code     0  stack_rom_symbol.txt ABSOLUTE
    llm_encryption_done                      0x0000e6ed   Thumb Code     0  stack_rom_symbol.txt ABSOLUTE
    llm_init                                 0x0000e7c1   Thumb Code     0  stack_rom_symbol.txt ABSOLUTE
    llm_common_cmd_complete_send             0x0000e8cf   Thumb Code     0  stack_rom_symbol.txt ABSOLUTE
    llm_ble_ready                            0x0000e8e7   Thumb Code     0  stack_rom_symbol.txt ABSOLUTE
    llm_con_req_ind                          0x0000e8ed   Thumb Code     0  stack_rom_symbol.txt ABSOLUTE
    llm_common_cmd_status_send               0x0000eabb   Thumb Code     0  stack_rom_symbol.txt ABSOLUTE
    llm_set_adv_param                        0x0000ead3   Thumb Code     0  stack_rom_symbol.txt ABSOLUTE
    llm_ral_update                           0x0000ec67   Thumb Code     0  stack_rom_symbol.txt ABSOLUTE
    llm_set_adv_en                           0x0000ec93   Thumb Code     0  stack_rom_symbol.txt ABSOLUTE
    llm_set_adv_data                         0x0000edc3   Thumb Code     0  stack_rom_symbol.txt ABSOLUTE
    llm_set_scan_rsp_data                    0x0000ef1d   Thumb Code     0  stack_rom_symbol.txt ABSOLUTE
    llm_wl_dev_add                           0x0000efbd   Thumb Code     0  stack_rom_symbol.txt ABSOLUTE
    llm_wl_dev_rem                           0x0000efed   Thumb Code     0  stack_rom_symbol.txt ABSOLUTE
    llm_wl_dev_add_hdl                       0x0000f015   Thumb Code     0  stack_rom_symbol.txt ABSOLUTE
    llm_wl_dev_rem_hdl                       0x0000f08b   Thumb Code     0  stack_rom_symbol.txt ABSOLUTE
    llm_ral_dev_add                          0x0000f0f9   Thumb Code     0  stack_rom_symbol.txt ABSOLUTE
    llm_ral_dev_rm                           0x0000f281   Thumb Code     0  stack_rom_symbol.txt ABSOLUTE
    llm_ral_get_rpa                          0x0000f4a9   Thumb Code     0  stack_rom_symbol.txt ABSOLUTE
    llm_ral_set_timeout                      0x0000f523   Thumb Code     0  stack_rom_symbol.txt ABSOLUTE
    hci_command_handler                      0x0000fe61   Thumb Code     0  stack_rom_symbol.txt ABSOLUTE
    llm_util_bd_addr_wl_position             0x0001002d   Thumb Code     0  stack_rom_symbol.txt ABSOLUTE
    llm_util_bl_check                        0x0001009d   Thumb Code     0  stack_rom_symbol.txt ABSOLUTE
    llm_util_bd_addr_in_wl                   0x00010107   Thumb Code     0  stack_rom_symbol.txt ABSOLUTE
    llm_util_check_address_validity          0x00010155   Thumb Code     0  stack_rom_symbol.txt ABSOLUTE
    llm_util_check_map_validity              0x00010165   Thumb Code     0  stack_rom_symbol.txt ABSOLUTE
    llm_util_apply_bd_addr                   0x000101b5   Thumb Code     0  stack_rom_symbol.txt ABSOLUTE
    llm_util_set_public_addr                 0x000101d3   Thumb Code     0  stack_rom_symbol.txt ABSOLUTE
    llm_util_check_evt_mask                  0x000101e3   Thumb Code     0  stack_rom_symbol.txt ABSOLUTE
    llm_util_get_channel_map                 0x00010203   Thumb Code     0  stack_rom_symbol.txt ABSOLUTE
    llm_util_get_supp_features               0x00010205   Thumb Code     0  stack_rom_symbol.txt ABSOLUTE
    llm_util_adv_data_update                 0x00010211   Thumb Code     0  stack_rom_symbol.txt ABSOLUTE
    llm_util_bd_addr_in_ral                  0x0001024d   Thumb Code     0  stack_rom_symbol.txt ABSOLUTE
    llm_util_bl_add                          0x000102bd   Thumb Code     0  stack_rom_symbol.txt ABSOLUTE
    llm_util_bl_rem                          0x00010341   Thumb Code     0  stack_rom_symbol.txt ABSOLUTE
    llm_end_evt_defer                        0x000103a3   Thumb Code     0  stack_rom_symbol.txt ABSOLUTE
    llm_pdu_defer                            0x0001046f   Thumb Code     0  stack_rom_symbol.txt ABSOLUTE
    ea_elt_cancel                            0x000105ad   Thumb Code     0  stack_rom_symbol.txt ABSOLUTE
    ea_time_get_slot_rounded                 0x000106ab   Thumb Code     0  stack_rom_symbol.txt ABSOLUTE
    ea_init                                  0x000107eb   Thumb Code     0  stack_rom_symbol.txt ABSOLUTE
    ea_elt_create                            0x0001080f   Thumb Code     0  stack_rom_symbol.txt ABSOLUTE
    ea_time_get_halfslot_rounded             0x00010837   Thumb Code     0  stack_rom_symbol.txt ABSOLUTE
    ea_elt_insert                            0x00010861   Thumb Code     0  stack_rom_symbol.txt ABSOLUTE
    ea_elt_remove                            0x00010b15   Thumb Code     0  stack_rom_symbol.txt ABSOLUTE
    ea_interval_create                       0x00010b7f   Thumb Code     0  stack_rom_symbol.txt ABSOLUTE
    ea_interval_insert                       0x00010b95   Thumb Code     0  stack_rom_symbol.txt ABSOLUTE
    ea_interval_remove                       0x00010ba3   Thumb Code     0  stack_rom_symbol.txt ABSOLUTE
    ea_interval_delete                       0x00010bb3   Thumb Code     0  stack_rom_symbol.txt ABSOLUTE
    ea_finetimer_isr                         0x00010bcd   Thumb Code     0  stack_rom_symbol.txt ABSOLUTE
    ea_sw_isr                                0x00010ca3   Thumb Code     0  stack_rom_symbol.txt ABSOLUTE
    ea_offset_req                            0x00010cc3   Thumb Code     0  stack_rom_symbol.txt ABSOLUTE
    ea_timer_target_get                      0x00010e7b   Thumb Code     0  stack_rom_symbol.txt ABSOLUTE
    ea_sleep_check                           0x00010e97   Thumb Code     0  stack_rom_symbol.txt ABSOLUTE
    ea_interval_duration_req                 0x00010ee5   Thumb Code     0  stack_rom_symbol.txt ABSOLUTE
    ea_get_scan_elt                          0x00010fa3   Thumb Code     0  stack_rom_symbol.txt ABSOLUTE
    ea_set_scan_elt                          0x00010fa9   Thumb Code     0  stack_rom_symbol.txt ABSOLUTE
    gapm_update_state                        0x00010fc1   Thumb Code     0  stack_rom_symbol.txt ABSOLUTE
    gapm_le_psm_cleanup                      0x00011025   Thumb Code     0  stack_rom_symbol.txt ABSOLUTE
    gapm_init                                0x0001103f   Thumb Code     0  stack_rom_symbol.txt ABSOLUTE
    gapm_init_attr                           0x000110d3   Thumb Code     0  stack_rom_symbol.txt ABSOLUTE
    gapm_get_operation                       0x000110ff   Thumb Code     0  stack_rom_symbol.txt ABSOLUTE
    gapm_get_requester                       0x00011125   Thumb Code     0  stack_rom_symbol.txt ABSOLUTE
    gapm_reschedule_operation                0x0001114f   Thumb Code     0  stack_rom_symbol.txt ABSOLUTE
    gapm_send_complete_evt                   0x00011183   Thumb Code     0  stack_rom_symbol.txt ABSOLUTE
    gapm_send_error_evt                      0x000111c9   Thumb Code     0  stack_rom_symbol.txt ABSOLUTE
    gapm_get_address_type                    0x000111e9   Thumb Code     0  stack_rom_symbol.txt ABSOLUTE
    gapm_con_create                          0x000111f5   Thumb Code     0  stack_rom_symbol.txt ABSOLUTE
    gapm_con_enable                          0x00011275   Thumb Code     0  stack_rom_symbol.txt ABSOLUTE
    gapm_con_cleanup                         0x00011281   Thumb Code     0  stack_rom_symbol.txt ABSOLUTE
    gapm_get_id_from_task                    0x000112b7   Thumb Code     0  stack_rom_symbol.txt ABSOLUTE
    gapm_get_task_from_id                    0x00011307   Thumb Code     0  stack_rom_symbol.txt ABSOLUTE
    gapm_is_disc_connection                  0x00011353   Thumb Code     0  stack_rom_symbol.txt ABSOLUTE
    gapm_get_max_mtu                         0x00011379   Thumb Code     0  stack_rom_symbol.txt ABSOLUTE
    gapm_get_max_mps                         0x00011381   Thumb Code     0  stack_rom_symbol.txt ABSOLUTE
    gapm_set_max_mtu                         0x00011389   Thumb Code     0  stack_rom_symbol.txt ABSOLUTE
    gapm_set_max_mps                         0x000113a5   Thumb Code     0  stack_rom_symbol.txt ABSOLUTE
    gapm_addr_check                          0x000113bd   Thumb Code     0  stack_rom_symbol.txt ABSOLUTE
    gapm_dle_val_check                       0x0001141d   Thumb Code     0  stack_rom_symbol.txt ABSOLUTE
    gapm_is_legacy_pairing_supp              0x0001143d   Thumb Code     0  stack_rom_symbol.txt ABSOLUTE
    gapm_is_sec_con_pairing_supp             0x00011449   Thumb Code     0  stack_rom_symbol.txt ABSOLUTE
    gapm_le_psm_find                         0x00011455   Thumb Code     0  stack_rom_symbol.txt ABSOLUTE
    gapm_le_psm_get_info                     0x0001146d   Thumb Code     0  stack_rom_symbol.txt ABSOLUTE
    gapm_lecb_register                       0x0001149d   Thumb Code     0  stack_rom_symbol.txt ABSOLUTE
    gapm_lecb_unregister                     0x000114cd   Thumb Code     0  stack_rom_symbol.txt ABSOLUTE
    gapm_is_embedded_host                    0x000114ef   Thumb Code     0  stack_rom_symbol.txt ABSOLUTE
    gapm_set_embedded_host                   0x000114f7   Thumb Code     0  stack_rom_symbol.txt ABSOLUTE
    gapm_is_pref_con_param_pres              0x000114ff   Thumb Code     0  stack_rom_symbol.txt ABSOLUTE
    gapm_get_att_handle                      0x0001150b   Thumb Code     0  stack_rom_symbol.txt ABSOLUTE
    gapm_svc_chg_en                          0x00011535   Thumb Code     0  stack_rom_symbol.txt ABSOLUTE
    gapm_dbg_mode_en                         0x00011541   Thumb Code     0  stack_rom_symbol.txt ABSOLUTE
    gapm_set_svc_start_hdl                   0x0001154b   Thumb Code     0  stack_rom_symbol.txt ABSOLUTE
    gapm_hci_handler                         0x00012021   Thumb Code     0  stack_rom_symbol.txt ABSOLUTE
    gapm_adv_op_sanity                       0x00012cb7   Thumb Code     0  stack_rom_symbol.txt ABSOLUTE
    gapm_set_adv_mode                        0x00012e59   Thumb Code     0  stack_rom_symbol.txt ABSOLUTE
    gapm_set_adv_data                        0x00012e71   Thumb Code     0  stack_rom_symbol.txt ABSOLUTE
    gapm_get_local_addrtype                  0x00012ec3   Thumb Code     0  stack_rom_symbol.txt ABSOLUTE
    gapm_execute_adv_op                      0x00012ee3   Thumb Code     0  stack_rom_symbol.txt ABSOLUTE
    gapm_get_role                            0x00013003   Thumb Code     0  stack_rom_symbol.txt ABSOLUTE
    gapm_update_air_op_state                 0x00013009   Thumb Code     0  stack_rom_symbol.txt ABSOLUTE
    gapm_get_irk                             0x00013129   Thumb Code     0  stack_rom_symbol.txt ABSOLUTE
    gapm_get_bdaddr                          0x0001312d   Thumb Code     0  stack_rom_symbol.txt ABSOLUTE
    gapm_basic_hci_cmd_send                  0x00013133   Thumb Code     0  stack_rom_symbol.txt ABSOLUTE
    gapm_setup_conn                          0x00013147   Thumb Code     0  stack_rom_symbol.txt ABSOLUTE
    gapm_get_adv_mode                        0x000131b7   Thumb Code     0  stack_rom_symbol.txt ABSOLUTE
    gapm_op_reset_continue                   0x000131d3   Thumb Code     0  stack_rom_symbol.txt ABSOLUTE
    gapm_op_setup_continue                   0x00013263   Thumb Code     0  stack_rom_symbol.txt ABSOLUTE
    gapc_update_state                        0x00013519   Thumb Code     0  stack_rom_symbol.txt ABSOLUTE
    gapc_get_requester                       0x00013549   Thumb Code     0  stack_rom_symbol.txt ABSOLUTE
    gapc_send_complete_evt                   0x00013587   Thumb Code     0  stack_rom_symbol.txt ABSOLUTE
    gapc_init                                0x00013651   Thumb Code     0  stack_rom_symbol.txt ABSOLUTE
    gapc_con_create                          0x00013687   Thumb Code     0  stack_rom_symbol.txt ABSOLUTE
    gapc_con_cleanup                         0x0001377f   Thumb Code     0  stack_rom_symbol.txt ABSOLUTE
    gapc_send_disconect_ind                  0x0001378f   Thumb Code     0  stack_rom_symbol.txt ABSOLUTE
    gapc_get_conidx                          0x000137b1   Thumb Code     0  stack_rom_symbol.txt ABSOLUTE
    gapc_get_conhdl                          0x000137d9   Thumb Code     0  stack_rom_symbol.txt ABSOLUTE
    gapc_get_role                            0x000137f1   Thumb Code     0  stack_rom_symbol.txt ABSOLUTE
    gapc_get_bdaddr                          0x0001380d   Thumb Code     0  stack_rom_symbol.txt ABSOLUTE
    gapc_get_csrk                            0x0001382d   Thumb Code     0  stack_rom_symbol.txt ABSOLUTE
    gapc_get_sign_counter                    0x0001384b   Thumb Code     0  stack_rom_symbol.txt ABSOLUTE
    gapc_send_error_evt                      0x00013869   Thumb Code     0  stack_rom_symbol.txt ABSOLUTE
    gapc_get_operation                       0x0001388b   Thumb Code     0  stack_rom_symbol.txt ABSOLUTE
    gapc_get_operation_ptr                   0x00013915   Thumb Code     0  stack_rom_symbol.txt ABSOLUTE
    gapc_set_operation_ptr                   0x00013949   Thumb Code     0  stack_rom_symbol.txt ABSOLUTE
    gapc_reschedule_operation                0x00013981   Thumb Code     0  stack_rom_symbol.txt ABSOLUTE
    gapc_is_sec_set                          0x000139d7   Thumb Code     0  stack_rom_symbol.txt ABSOLUTE
    gapc_lk_sec_lvl_get                      0x00013a0b   Thumb Code     0  stack_rom_symbol.txt ABSOLUTE
    gapc_enc_keysize_get                     0x00013a27   Thumb Code     0  stack_rom_symbol.txt ABSOLUTE
    gapc_enc_keysize_set                     0x00013a3f   Thumb Code     0  stack_rom_symbol.txt ABSOLUTE
    gapc_link_encrypted                      0x00013a53   Thumb Code     0  stack_rom_symbol.txt ABSOLUTE
    gapc_auth_set                            0x00013a6d   Thumb Code     0  stack_rom_symbol.txt ABSOLUTE
    gapc_auth_get                            0x00013ac5   Thumb Code     0  stack_rom_symbol.txt ABSOLUTE
    gapc_svc_chg_ccc_get                     0x00013af7   Thumb Code     0  stack_rom_symbol.txt ABSOLUTE
    gapc_svc_chg_ccc_set                     0x00013b07   Thumb Code     0  stack_rom_symbol.txt ABSOLUTE
    gapc_param_update_sanity                 0x00013b1d   Thumb Code     0  stack_rom_symbol.txt ABSOLUTE
    gapc_hci_handler                         0x0001419b   Thumb Code     0  stack_rom_symbol.txt ABSOLUTE
    gapc_sig_pdu_recv_handler                0x000142b1   Thumb Code     0  stack_rom_symbol.txt ABSOLUTE
    gapc_process_op                          0x000142ed   Thumb Code     0  stack_rom_symbol.txt ABSOLUTE
    smpc_send_use_enc_block_cmd              0x00015239   Thumb Code     0  stack_rom_symbol.txt ABSOLUTE
    smpc_send_start_enc_cmd                  0x000152b7   Thumb Code     0  stack_rom_symbol.txt ABSOLUTE
    smpc_send_ltk_req_rsp                    0x0001532f   Thumb Code     0  stack_rom_symbol.txt ABSOLUTE
    smpc_send_pairing_req_ind                0x000153a1   Thumb Code     0  stack_rom_symbol.txt ABSOLUTE
    smpc_send_pairing_ind                    0x000154c1   Thumb Code     0  stack_rom_symbol.txt ABSOLUTE
    smpc_check_pairing_feat                  0x00015577   Thumb Code     0  stack_rom_symbol.txt ABSOLUTE
    smpc_launch_rep_att_timer                0x0001559d   Thumb Code     0  stack_rom_symbol.txt ABSOLUTE
    smpc_check_repeated_attempts             0x000155d7   Thumb Code     0  stack_rom_symbol.txt ABSOLUTE
    smpc_check_max_key_size                  0x0001565d   Thumb Code     0  stack_rom_symbol.txt ABSOLUTE
    smpc_check_key_distrib                   0x00015697   Thumb Code     0  stack_rom_symbol.txt ABSOLUTE
    smpc_xor                                 0x0001571d   Thumb Code     0  stack_rom_symbol.txt ABSOLUTE
    smpc_generate_l                          0x00015735   Thumb Code     0  stack_rom_symbol.txt ABSOLUTE
    smpc_generate_ci                         0x00015783   Thumb Code     0  stack_rom_symbol.txt ABSOLUTE
    smpc_generate_rand                       0x000157e7   Thumb Code     0  stack_rom_symbol.txt ABSOLUTE
    smpc_generate_e1                         0x00015847   Thumb Code     0  stack_rom_symbol.txt ABSOLUTE
    smpc_generate_cfm                        0x00015905   Thumb Code     0  stack_rom_symbol.txt ABSOLUTE
    smpc_generate_stk                        0x0001597d   Thumb Code     0  stack_rom_symbol.txt ABSOLUTE
    smpc_calc_subkeys                        0x000159d3   Thumb Code     0  stack_rom_symbol.txt ABSOLUTE
    smpc_clear_timeout_timer                 0x00015a95   Thumb Code     0  stack_rom_symbol.txt ABSOLUTE
    smpc_pairing_end                         0x00015abd   Thumb Code     0  stack_rom_symbol.txt ABSOLUTE
    smpc_tkdp_rcp_continue                   0x00015b37   Thumb Code     0  stack_rom_symbol.txt ABSOLUTE
    smpc_tkdp_rcp_start                      0x00015c0d   Thumb Code     0  stack_rom_symbol.txt ABSOLUTE
    smpc_pdu_send                            0x00015c55   Thumb Code     0  stack_rom_symbol.txt ABSOLUTE
    smpc_tkdp_send_continue                  0x00015ccb   Thumb Code     0  stack_rom_symbol.txt ABSOLUTE
    smpc_tkdp_send_start                     0x00015dc1   Thumb Code     0  stack_rom_symbol.txt ABSOLUTE
    smpc_get_key_sec_prop                    0x00015e09   Thumb Code     0  stack_rom_symbol.txt ABSOLUTE
    smpc_is_sec_mode_reached                 0x00015f3f   Thumb Code     0  stack_rom_symbol.txt ABSOLUTE
    smpc_handle_enc_change_evt               0x00015f87   Thumb Code     0  stack_rom_symbol.txt ABSOLUTE
    smpc_pdu_recv                            0x000160fb   Thumb Code     0  stack_rom_symbol.txt ABSOLUTE
    smpc_pairing_tk_exch                     0x00016441   Thumb Code     0  stack_rom_symbol.txt ABSOLUTE
    smpc_pairing_ltk_exch                    0x00016539   Thumb Code     0  stack_rom_symbol.txt ABSOLUTE
    smpc_pairing_irk_exch                    0x000165c7   Thumb Code     0  stack_rom_symbol.txt ABSOLUTE
    smpc_pairing_csrk_exch                   0x0001672d   Thumb Code     0  stack_rom_symbol.txt ABSOLUTE
    smpc_pairing_rsp                         0x00016785   Thumb Code     0  stack_rom_symbol.txt ABSOLUTE
    smpc_pairing_req_handler                 0x00016935   Thumb Code     0  stack_rom_symbol.txt ABSOLUTE
    smpc_security_req_send                   0x00016995   Thumb Code     0  stack_rom_symbol.txt ABSOLUTE
    smpc_encrypt_start_handler               0x000169e7   Thumb Code     0  stack_rom_symbol.txt ABSOLUTE
    smpc_encrypt_cfm                         0x00016a13   Thumb Code     0  stack_rom_symbol.txt ABSOLUTE
    smpc_sign_command                        0x00016a3f   Thumb Code     0  stack_rom_symbol.txt ABSOLUTE
    smpc_sign_cont                           0x00016b45   Thumb Code     0  stack_rom_symbol.txt ABSOLUTE
    smpc_calc_confirm_cont                   0x00016e0f   Thumb Code     0  stack_rom_symbol.txt ABSOLUTE
    smpc_confirm_gen_rand                    0x0001753d   Thumb Code     0  stack_rom_symbol.txt ABSOLUTE
    smpc_key_press_notification_ind          0x00017863   Thumb Code     0  stack_rom_symbol.txt ABSOLUTE
    smpc_check_param                         0x00017e29   Thumb Code     0  stack_rom_symbol.txt ABSOLUTE
    smpm_gen_rand_addr                       0x0001867d   Thumb Code     0  stack_rom_symbol.txt ABSOLUTE
    smpm_send_encrypt_req                    0x00018699   Thumb Code     0  stack_rom_symbol.txt ABSOLUTE
    smpm_resolv_addr                         0x000186c7   Thumb Code     0  stack_rom_symbol.txt ABSOLUTE
    smpm_use_enc_block                       0x000186e9   Thumb Code     0  stack_rom_symbol.txt ABSOLUTE
    smpm_gen_rand_nb                         0x000186eb   Thumb Code     0  stack_rom_symbol.txt ABSOLUTE
    attc_send_att_req                        0x00018741   Thumb Code     0  stack_rom_symbol.txt ABSOLUTE
    attc_send_hdl_cfm                        0x0001876b   Thumb Code     0  stack_rom_symbol.txt ABSOLUTE
    attc_send_execute                        0x0001878b   Thumb Code     0  stack_rom_symbol.txt ABSOLUTE
    attc_send_read_ind                       0x000187af   Thumb Code     0  stack_rom_symbol.txt ABSOLUTE
    attc_l2cc_pdu_recv_handler               0x00019129   Thumb Code     0  stack_rom_symbol.txt ABSOLUTE
    attm_convert_to128                       0x00019181   Thumb Code     0  stack_rom_symbol.txt ABSOLUTE
    attm_uuid_comp                           0x000191b1   Thumb Code     0  stack_rom_symbol.txt ABSOLUTE
    attm_uuid16_comp                         0x00019209   Thumb Code     0  stack_rom_symbol.txt ABSOLUTE
    attm_is_bt16_uuid                        0x00019215   Thumb Code     0  stack_rom_symbol.txt ABSOLUTE
    attm_is_bt32_uuid                        0x0001923b   Thumb Code     0  stack_rom_symbol.txt ABSOLUTE
    attm_convert_to128_ti                    0x00019263   Thumb Code     0  stack_rom_symbol.txt ABSOLUTE
    attm_svc_create_db                       0x00019293   Thumb Code     0  stack_rom_symbol.txt ABSOLUTE
    attm_svc_create_db_128                   0x00019393   Thumb Code     0  stack_rom_symbol.txt ABSOLUTE
    attm_svc_create_db128                    0x000194bf   Thumb Code     0  stack_rom_symbol.txt ABSOLUTE
    attm_reserve_handle_range                0x000195fd   Thumb Code     0  stack_rom_symbol.txt ABSOLUTE
    attm_att_set_value                       0x0001961f   Thumb Code     0  stack_rom_symbol.txt ABSOLUTE
    attm_get_value                           0x000196d1   Thumb Code     0  stack_rom_symbol.txt ABSOLUTE
    attm_att_set_permission                  0x00019839   Thumb Code     0  stack_rom_symbol.txt ABSOLUTE
    attm_att_update_perm                     0x000198af   Thumb Code     0  stack_rom_symbol.txt ABSOLUTE
    attm_svc_set_permission                  0x0001991d   Thumb Code     0  stack_rom_symbol.txt ABSOLUTE
    attm_svc_get_permission                  0x00019941   Thumb Code     0  stack_rom_symbol.txt ABSOLUTE
    attm_init                                0x0001995f   Thumb Code     0  stack_rom_symbol.txt ABSOLUTE
    attmdb_svc_check_hdl                     0x00019d13   Thumb Code     0  stack_rom_symbol.txt ABSOLUTE
    attmdb_add_service                       0x00019d63   Thumb Code     0  stack_rom_symbol.txt ABSOLUTE
    attmdb_destroy                           0x00019dd9   Thumb Code     0  stack_rom_symbol.txt ABSOLUTE
    attmdb_get_service                       0x00019df3   Thumb Code     0  stack_rom_symbol.txt ABSOLUTE
    attmdb_svc_visibility_set                0x00019e49   Thumb Code     0  stack_rom_symbol.txt ABSOLUTE
    attmdb_get_attribute                     0x00019e79   Thumb Code     0  stack_rom_symbol.txt ABSOLUTE
    attmdb_get_next_att                      0x00019ead   Thumb Code     0  stack_rom_symbol.txt ABSOLUTE
    attmdb_uuid16_comp                       0x00019f1f   Thumb Code     0  stack_rom_symbol.txt ABSOLUTE
    attmdb_get_max_len                       0x00019f5d   Thumb Code     0  stack_rom_symbol.txt ABSOLUTE
    attmdb_get_uuid                          0x00019fc7   Thumb Code     0  stack_rom_symbol.txt ABSOLUTE
    attmdb_att_get_permission                0x0001a09d   Thumb Code     0  stack_rom_symbol.txt ABSOLUTE
    attmdb_get_nb_svc                        0x0001a1bf   Thumb Code     0  stack_rom_symbol.txt ABSOLUTE
    attmdb_get_svc_info                      0x0001a1d5   Thumb Code     0  stack_rom_symbol.txt ABSOLUTE
    atts_clear_read_cache                    0x0001a2f5   Thumb Code     0  stack_rom_symbol.txt ABSOLUTE
    atts_send_error                          0x0001a475   Thumb Code     0  stack_rom_symbol.txt ABSOLUTE
    atts_write_signed_cfm                    0x0001a499   Thumb Code     0  stack_rom_symbol.txt ABSOLUTE
    atts_send_event                          0x0001a4db   Thumb Code     0  stack_rom_symbol.txt ABSOLUTE
    atts_clear_prep_data                     0x0001a567   Thumb Code     0  stack_rom_symbol.txt ABSOLUTE
    atts_clear_rsp_data                      0x0001a583   Thumb Code     0  stack_rom_symbol.txt ABSOLUTE
    atts_write_rsp_send                      0x0001a59f   Thumb Code     0  stack_rom_symbol.txt ABSOLUTE
    atts_process_pdu                         0x0001b283   Thumb Code     0  stack_rom_symbol.txt ABSOLUTE
    atts_l2cc_pdu_recv_handler               0x0001b2ff   Thumb Code     0  stack_rom_symbol.txt ABSOLUTE
    gattc_update_state                       0x0001b533   Thumb Code     0  stack_rom_symbol.txt ABSOLUTE
    gattc_get_requester                      0x0001b557   Thumb Code     0  stack_rom_symbol.txt ABSOLUTE
    gattc_send_complete_evt                  0x0001b597   Thumb Code     0  stack_rom_symbol.txt ABSOLUTE
    gattc_cleanup                            0x0001b5f5   Thumb Code     0  stack_rom_symbol.txt ABSOLUTE
    gattc_init                               0x0001b68f   Thumb Code     0  stack_rom_symbol.txt ABSOLUTE
    gattc_create                             0x0001b6c7   Thumb Code     0  stack_rom_symbol.txt ABSOLUTE
    gattc_con_enable                         0x0001b74b   Thumb Code     0  stack_rom_symbol.txt ABSOLUTE
    gattc_get_mtu                            0x0001b75f   Thumb Code     0  stack_rom_symbol.txt ABSOLUTE
    gattc_set_mtu                            0x0001b76b   Thumb Code     0  stack_rom_symbol.txt ABSOLUTE
    gattc_send_error_evt                     0x0001b7a9   Thumb Code     0  stack_rom_symbol.txt ABSOLUTE
    gattc_get_operation                      0x0001b7cf   Thumb Code     0  stack_rom_symbol.txt ABSOLUTE
    gattc_get_op_seq_num                     0x0001b80b   Thumb Code     0  stack_rom_symbol.txt ABSOLUTE
    gattc_get_operation_ptr                  0x0001b847   Thumb Code     0  stack_rom_symbol.txt ABSOLUTE
    gattc_set_operation_ptr                  0x0001b879   Thumb Code     0  stack_rom_symbol.txt ABSOLUTE
    gattc_reschedule_operation               0x0001b8ad   Thumb Code     0  stack_rom_symbol.txt ABSOLUTE
    gattm_svc_get_start_hdl                  0x0001c8b1   Thumb Code     0  stack_rom_symbol.txt ABSOLUTE
    gattm_init                               0x0001c8b7   Thumb Code     0  stack_rom_symbol.txt ABSOLUTE
    gattm_init_attr                          0x0001c8d5   Thumb Code     0  stack_rom_symbol.txt ABSOLUTE
    gattm_create                             0x0001c93d   Thumb Code     0  stack_rom_symbol.txt ABSOLUTE
    gattm_cleanup                            0x0001c945   Thumb Code     0  stack_rom_symbol.txt ABSOLUTE
    l2cc_send_error_evt                      0x0001c961   Thumb Code     0  stack_rom_symbol.txt ABSOLUTE
    l2cc_update_state                        0x0001c989   Thumb Code     0  stack_rom_symbol.txt ABSOLUTE
    l2cc_send_complete_evt                   0x0001c9af   Thumb Code     0  stack_rom_symbol.txt ABSOLUTE
    l2cc_cleanup                             0x0001ca01   Thumb Code     0  stack_rom_symbol.txt ABSOLUTE
    l2cc_init                                0x0001cadd   Thumb Code     0  stack_rom_symbol.txt ABSOLUTE
    l2cc_create                              0x0001cb17   Thumb Code     0  stack_rom_symbol.txt ABSOLUTE
    l2cc_get_operation                       0x0001cb7f   Thumb Code     0  stack_rom_symbol.txt ABSOLUTE
    l2cc_get_operation_ptr                   0x0001cbb9   Thumb Code     0  stack_rom_symbol.txt ABSOLUTE
    l2cc_set_operation_ptr                   0x0001cbe9   Thumb Code     0  stack_rom_symbol.txt ABSOLUTE
    l2cc_data_send                           0x0001cc1b   Thumb Code     0  stack_rom_symbol.txt ABSOLUTE
    l2cc_lecb_h2l_err                        0x0001cf95   Thumb Code     0  stack_rom_symbol.txt ABSOLUTE
    l2cc_lecb_find                           0x0001cfcf   Thumb Code     0  stack_rom_symbol.txt ABSOLUTE
    l2cc_lecb_free                           0x0001d00b   Thumb Code     0  stack_rom_symbol.txt ABSOLUTE
    l2cc_lecb_init_disconnect                0x0001d0c3   Thumb Code     0  stack_rom_symbol.txt ABSOLUTE
    l2cc_lecb_send_con_req                   0x0001d0f3   Thumb Code     0  stack_rom_symbol.txt ABSOLUTE
    l2cc_lecb_send_con_rsp                   0x0001d12f   Thumb Code     0  stack_rom_symbol.txt ABSOLUTE
    l2cc_lecb_send_disc_req                  0x0001d15f   Thumb Code     0  stack_rom_symbol.txt ABSOLUTE
    l2cc_lecb_send_disc_rsp                  0x0001d18f   Thumb Code     0  stack_rom_symbol.txt ABSOLUTE
    l2cc_lecb_send_credit_add                0x0001d1b3   Thumb Code     0  stack_rom_symbol.txt ABSOLUTE
    l2cc_lecb_pdu_pack                       0x0001d1e5   Thumb Code     0  stack_rom_symbol.txt ABSOLUTE
    l2cc_lecb_pdu_unpack                     0x0001d249   Thumb Code     0  stack_rom_symbol.txt ABSOLUTE
    l2cc_dbg_pdu_pack                        0x0001d2c7   Thumb Code     0  stack_rom_symbol.txt ABSOLUTE
    l2cc_dbg_pdu_unpack                      0x0001d30f   Thumb Code     0  stack_rom_symbol.txt ABSOLUTE
    l2cc_pdu_pack                            0x0001d339   Thumb Code     0  stack_rom_symbol.txt ABSOLUTE
    l2cc_pdu_unpack                          0x0001d5d1   Thumb Code     0  stack_rom_symbol.txt ABSOLUTE
    l2cc_pdu_header_check                    0x0001d95f   Thumb Code     0  stack_rom_symbol.txt ABSOLUTE
    l2cc_sig_send_cmd_reject                 0x0001dc95   Thumb Code     0  stack_rom_symbol.txt ABSOLUTE
    l2cc_sig_pdu_recv_handler                0x0001e187   Thumb Code     0  stack_rom_symbol.txt ABSOLUTE
    l2cc_process_op                          0x0001e1e5   Thumb Code     0  stack_rom_symbol.txt ABSOLUTE
    l2cc_pdu_alloc                           0x0001ea03   Thumb Code     0  stack_rom_symbol.txt ABSOLUTE
    l2cc_pdu_send                            0x0001ea2d   Thumb Code     0  stack_rom_symbol.txt ABSOLUTE
    l2cm_init                                0x0001ea99   Thumb Code     0  stack_rom_symbol.txt ABSOLUTE
    l2cm_create                              0x0001eacb   Thumb Code     0  stack_rom_symbol.txt ABSOLUTE
    l2cm_tx_status                           0x0001ead3   Thumb Code     0  stack_rom_symbol.txt ABSOLUTE
    l2cm_cleanup                             0x0001eafd   Thumb Code     0  stack_rom_symbol.txt ABSOLUTE
    l2cm_set_link_layer_buff_size            0x0001eb11   Thumb Code     0  stack_rom_symbol.txt ABSOLUTE
    l2cm_get_nb_buffer_available             0x0001eb1b   Thumb Code     0  stack_rom_symbol.txt ABSOLUTE
    hci_evt_mask_set                         0x0001eb29   Thumb Code     0  stack_rom_symbol.txt ABSOLUTE
    hci_init                                 0x0001eb8b   Thumb Code     0  stack_rom_symbol.txt ABSOLUTE
    hci_reset                                0x0001ebad   Thumb Code     0  stack_rom_symbol.txt ABSOLUTE
    hci_send_2_host                          0x0001ebcf   Thumb Code     0  stack_rom_symbol.txt ABSOLUTE
    hci_send_2_controller                    0x0001eca5   Thumb Code     0  stack_rom_symbol.txt ABSOLUTE
    hci_fc_init                              0x0001edb1   Thumb Code     0  stack_rom_symbol.txt ABSOLUTE
    hci_fc_acl_buf_size_set                  0x0001edbd   Thumb Code     0  stack_rom_symbol.txt ABSOLUTE
    hci_fc_acl_en                            0x0001eddd   Thumb Code     0  stack_rom_symbol.txt ABSOLUTE
    hci_fc_acl_packet_sent                   0x0001ee07   Thumb Code     0  stack_rom_symbol.txt ABSOLUTE
    hci_fc_host_nb_acl_pkts_complete         0x0001ee17   Thumb Code     0  stack_rom_symbol.txt ABSOLUTE
    hci_fc_check_host_available_nb_acl_packets 0x0001ee29   Thumb Code     0  stack_rom_symbol.txt ABSOLUTE
    hci_dbg_wr_mem_cmd_upk                   0x0001f155   Thumb Code     0  stack_rom_symbol.txt ABSOLUTE
    hci_dbg_wr_flash_cmd_upk                 0x0001f1d9   Thumb Code     0  stack_rom_symbol.txt ABSOLUTE
    hci_dbg_wr_par_cmd_upk                   0x0001f25f   Thumb Code     0  stack_rom_symbol.txt ABSOLUTE
    hci_dbg_rd_data_cmd_cmp_evt_pk           0x0001f2c9   Thumb Code     0  stack_rom_symbol.txt ABSOLUTE
    hci_dbg_assert_err_evt_pkupk             0x0001f331   Thumb Code     0  stack_rom_symbol.txt ABSOLUTE
    hci_look_for_cmd_desc                    0x0001f3d5   Thumb Code     0  stack_rom_symbol.txt ABSOLUTE
    hci_look_for_evt_desc                    0x0001f425   Thumb Code     0  stack_rom_symbol.txt ABSOLUTE
    hci_look_for_dbg_evt_desc                0x0001f44b   Thumb Code     0  stack_rom_symbol.txt ABSOLUTE
    hci_look_for_le_evt_desc                 0x0001f46f   Thumb Code     0  stack_rom_symbol.txt ABSOLUTE
    hci_tl_send                              0x0001f74b   Thumb Code     0  stack_rom_symbol.txt ABSOLUTE
    hci_tl_init                              0x0001f795   Thumb Code     0  stack_rom_symbol.txt ABSOLUTE
    hci_cmd_get_max_param_size               0x0001f7bf   Thumb Code     0  stack_rom_symbol.txt ABSOLUTE
    hci_cmd_received                         0x0001f7d1   Thumb Code     0  stack_rom_symbol.txt ABSOLUTE
    hci_acl_tx_data_alloc                    0x0001f953   Thumb Code     0  stack_rom_symbol.txt ABSOLUTE
    hci_acl_tx_data_received                 0x0001f9e9   Thumb Code     0  stack_rom_symbol.txt ABSOLUTE
    hci_util_pack                            0x0001fc93   Thumb Code     0  stack_rom_symbol.txt ABSOLUTE
    hci_util_unpack                          0x0001fda1   Thumb Code     0  stack_rom_symbol.txt ABSOLUTE
    h4tl_init                                0x00020545   Thumb Code     0  stack_rom_symbol.txt ABSOLUTE
    h4tl_write                               0x00020591   Thumb Code     0  stack_rom_symbol.txt ABSOLUTE
    h4tl_start                               0x000205e5   Thumb Code     0  stack_rom_symbol.txt ABSOLUTE
    h4tl_stop                                0x000205ff   Thumb Code     0  stack_rom_symbol.txt ABSOLUTE
    __aeabi_uidiv                            0x00020699   Thumb Code     0  stack_rom_symbol.txt ABSOLUTE
    __aeabi_uidivmod                         0x00020699   Thumb Code     0  stack_rom_symbol.txt ABSOLUTE
    __aeabi_idiv                             0x000206c5   Thumb Code     0  stack_rom_symbol.txt ABSOLUTE
    __aeabi_idivmod                          0x000206c5   Thumb Code     0  stack_rom_symbol.txt ABSOLUTE
    rand                                     0x000206ed   Thumb Code     0  stack_rom_symbol.txt ABSOLUTE
    srand                                    0x000206ff   Thumb Code     0  stack_rom_symbol.txt ABSOLUTE
    __aeabi_memcpy                           0x00020711   Thumb Code     0  stack_rom_symbol.txt ABSOLUTE
    __aeabi_memcpy4                          0x00020711   Thumb Code     0  stack_rom_symbol.txt ABSOLUTE
    __aeabi_memcpy8                          0x00020711   Thumb Code     0  stack_rom_symbol.txt ABSOLUTE
    __aeabi_memset                           0x00020735   Thumb Code     0  stack_rom_symbol.txt ABSOLUTE
    __aeabi_memclr                           0x00020745   Thumb Code     0  stack_rom_symbol.txt ABSOLUTE
    __aeabi_memclr4                          0x00020745   Thumb Code     0  stack_rom_symbol.txt ABSOLUTE
    __aeabi_memclr8                          0x00020745   Thumb Code     0  stack_rom_symbol.txt ABSOLUTE
    strlen                                   0x0002075b   Thumb Code     0  stack_rom_symbol.txt ABSOLUTE
    memcmp                                   0x00020769   Thumb Code     0  stack_rom_symbol.txt ABSOLUTE
    __ARM_clz                                0x000207a4   ARM Code       0  stack_rom_symbol.txt ABSOLUTE
    __ARM_common_disable_fiq                 0x000207ac   ARM Code       0  stack_rom_symbol.txt ABSOLUTE
    __ARM_common_disable_irq                 0x000207c0   ARM Code       0  stack_rom_symbol.txt ABSOLUTE
    __ARM_common_enable_fiq                  0x000207d4   ARM Code       0  stack_rom_symbol.txt ABSOLUTE
    __ARM_common_enable_irq                  0x000207e4   ARM Code       0  stack_rom_symbol.txt ABSOLUTE
    __ARM_common_switch8                     0x00020800   ARM Code       0  stack_rom_symbol.txt ABSOLUTE
    dbg_default_handler                      0x000212f8   Data           0  stack_rom_symbol.txt ABSOLUTE
    one_bits                                 0x00021304   Data           0  stack_rom_symbol.txt ABSOLUTE
    co_sca2ppm                               0x00021314   Data           0  stack_rom_symbol.txt ABSOLUTE
    co_null_bdaddr                           0x00021324   Data           0  stack_rom_symbol.txt ABSOLUTE
    llc_default_handler                      0x000214dc   Data           0  stack_rom_symbol.txt ABSOLUTE
    rwip_coex_cfg                            0x000214f4   Data           0  stack_rom_symbol.txt ABSOLUTE
    rwip_priority                            0x000214f9   Data           0  stack_rom_symbol.txt ABSOLUTE
    lld_pdu_adv_pk_desc_tab                  0x00021508   Data           0  stack_rom_symbol.txt ABSOLUTE
    lld_pdu_llcp_pk_desc_tab                 0x0002155c   Data           0  stack_rom_symbol.txt ABSOLUTE
    llm_local_data_len_values                0x0002166a   Data           0  stack_rom_symbol.txt ABSOLUTE
    llm_local_cmds                           0x00021688   Data           0  stack_rom_symbol.txt ABSOLUTE
    llm_local_le_feats                       0x000216c8   Data           0  stack_rom_symbol.txt ABSOLUTE
    llm_local_le_states                      0x000216d0   Data           0  stack_rom_symbol.txt ABSOLUTE
    llm_default_handler                      0x00021850   Data           0  stack_rom_symbol.txt ABSOLUTE
    LLM_AA_CT1                               0x00021858   Data           0  stack_rom_symbol.txt ABSOLUTE
    LLM_AA_CT2                               0x0002185b   Data           0  stack_rom_symbol.txt ABSOLUTE
    gapm_default_state                       0x000219e8   Data           0  stack_rom_symbol.txt ABSOLUTE
    gapm_default_handler                     0x00021ac8   Data           0  stack_rom_symbol.txt ABSOLUTE
    gapc_sig_handlers                        0x00021b90   Data           0  stack_rom_symbol.txt ABSOLUTE
    gapc_default_state                       0x00021ba8   Data           0  stack_rom_symbol.txt ABSOLUTE
    gapc_default_handler                     0x00021cd8   Data           0  stack_rom_symbol.txt ABSOLUTE
    smpc_construct_pdu                       0x00021cfc   Data           0  stack_rom_symbol.txt ABSOLUTE
    smpc_recv_pdu                            0x00021d38   Data           0  stack_rom_symbol.txt ABSOLUTE
    attc_handlers                            0x00021d74   Data           0  stack_rom_symbol.txt ABSOLUTE
    atts_handlers                            0x00021e08   Data           0  stack_rom_symbol.txt ABSOLUTE
    gattc_default_state                      0x00021e80   Data           0  stack_rom_symbol.txt ABSOLUTE
    gattc_default_handler                    0x00021f60   Data           0  stack_rom_symbol.txt ABSOLUTE
    gattm_default_state                      0x00021f9c   Data           0  stack_rom_symbol.txt ABSOLUTE
    gattm_default_handler                    0x00021fa4   Data           0  stack_rom_symbol.txt ABSOLUTE
    l2cc_sig_handlers                        0x000220d0   Data           0  stack_rom_symbol.txt ABSOLUTE
    l2cc_default_state                       0x00022110   Data           0  stack_rom_symbol.txt ABSOLUTE
    l2cc_default_handler                     0x00022170   Data           0  stack_rom_symbol.txt ABSOLUTE
    hci_cmd_desc_tab_lk_ctrl                 0x00022188   Data           0  stack_rom_symbol.txt ABSOLUTE
    hci_cmd_desc_tab_ctrl_bb                 0x000221ac   Data           0  stack_rom_symbol.txt ABSOLUTE
    hci_cmd_desc_tab_info_par                0x00022224   Data           0  stack_rom_symbol.txt ABSOLUTE
    hci_cmd_desc_tab_stat_par                0x00022260   Data           0  stack_rom_symbol.txt ABSOLUTE
    hci_cmd_desc_tab_le                      0x0002226c   Data           0  stack_rom_symbol.txt ABSOLUTE
    hci_cmd_desc_tab_vs                      0x00022494   Data           0  stack_rom_symbol.txt ABSOLUTE
    hci_evt_dbg_desc_tab                     0x00022554   Data           0  stack_rom_symbol.txt ABSOLUTE
    hci_cmd_desc_root_tab                    0x0002255c   Data           0  stack_rom_symbol.txt ABSOLUTE
    hci_evt_desc_tab                         0x0002258c   Data           0  stack_rom_symbol.txt ABSOLUTE
    hci_evt_le_desc_tab                      0x000225d4   Data           0  stack_rom_symbol.txt ABSOLUTE
    boot_stack_base_UNUSED                   0x00023e64   Data           4  boot_handlers.o(SYS_BOOT)
    boot_stack_len_UNUSED                    0x00023e68   Data           4  boot_handlers.o(SYS_BOOT)
    boot_stack_base_IRQ                      0x00023e6c   Data           4  boot_handlers.o(SYS_BOOT)
    boot_stack_len_IRQ                       0x00023e70   Data           4  boot_handlers.o(SYS_BOOT)
    boot_stack_base_SVC                      0x00023e74   Data           4  boot_handlers.o(SYS_BOOT)
    boot_stack_len_SVC                       0x00023e78   Data           4  boot_handlers.o(SYS_BOOT)
    boot_stack_base_FIQ                      0x00023e7c   Data           4  boot_handlers.o(SYS_BOOT)
    boot_stack_len_FIQ                       0x00023e80   Data           4  boot_handlers.o(SYS_BOOT)
    sys_Reset                                0x00023e84   ARM Code       0  boot_handlers.o(SYS_BOOT)
    __user_initial_stackheap                 0x0002402c   ARM Code       0  boot_handlers.o(SYS_BOOT)
    Long ARM to Thumb Veneer to Undefined_Exception 0x0002405c   ARM Code       8  anon$$obj.o(Veneer$$Code)
    Long ARM to Thumb Veneer to SoftwareInterrupt_Exception 0x00024064   ARM Code       8  anon$$obj.o(Veneer$$Code)
    Long ARM to Thumb Veneer to PrefetchAbort_Exception 0x0002406c   ARM Code       8  anon$$obj.o(Veneer$$Code)
    Long ARM to Thumb Veneer to DataAbort_Exception 0x00024074   ARM Code       8  anon$$obj.o(Veneer$$Code)
    Long ARM to Thumb Veneer to Reserved_Exception 0x0002407c   ARM Code       8  anon$$obj.o(Veneer$$Code)
    SYSirq_FIQ_Handler                       0x00024100   ARM Code      16  intc.o(sys_fiq_entry)
    SYSirq_IRQ_Handler                       0x00024120   ARM Code      16  intc.o(sys_irq_entry)
    __main                                   0x00024130   ARM Code       8  __main.o(!!!main)
    __scatterload                            0x00024138   ARM Code       0  __scatter.o(!!!scatter)
    __scatterload_rt2                        0x00024138   ARM Code      52  __scatter.o(!!!scatter)
    __scatterload_null                       0x0002414c   ARM Code       0  __scatter.o(!!!scatter)
    __decompress                             0x00024174   ARM Code      92  __dczerorl2.o(!!dczerorl2)
    __decompress1                            0x00024174   ARM Code       0  __dczerorl2.o(!!dczerorl2)
    __scatterload_zeroinit                   0x000241d0   ARM Code      44  __scatter_zi.o(!!handler_zi)
    _printf_n                                0x000241fc   ARM Code       0  _printf_n.o(.ARM.Collect$$_printf_percent$$00000001)
    _printf_percent                          0x000241fc   ARM Code       0  _printf_percent.o(.ARM.Collect$$_printf_percent$$00000000)
    _printf_p                                0x00024204   ARM Code       0  _printf_p.o(.ARM.Collect$$_printf_percent$$00000002)
    _printf_f                                0x0002420c   ARM Code       0  _printf_f.o(.ARM.Collect$$_printf_percent$$00000003)
    _printf_e                                0x00024214   ARM Code       0  _printf_e.o(.ARM.Collect$$_printf_percent$$00000004)
    _printf_g                                0x0002421c   ARM Code       0  _printf_g.o(.ARM.Collect$$_printf_percent$$00000005)
    _printf_a                                0x00024224   ARM Code       0  _printf_a.o(.ARM.Collect$$_printf_percent$$00000006)
    _printf_ll                               0x0002422c   ARM Code       0  _printf_ll.o(.ARM.Collect$$_printf_percent$$00000007)
    _printf_i                                0x00024238   ARM Code       0  _printf_i.o(.ARM.Collect$$_printf_percent$$00000008)
    _printf_d                                0x00024240   ARM Code       0  _printf_d.o(.ARM.Collect$$_printf_percent$$00000009)
    _printf_u                                0x00024248   ARM Code       0  _printf_u.o(.ARM.Collect$$_printf_percent$$0000000A)
    _printf_o                                0x00024250   ARM Code       0  _printf_o.o(.ARM.Collect$$_printf_percent$$0000000B)
    _printf_x                                0x00024258   ARM Code       0  _printf_x.o(.ARM.Collect$$_printf_percent$$0000000C)
    _printf_lli                              0x00024260   ARM Code       0  _printf_lli.o(.ARM.Collect$$_printf_percent$$0000000D)
    _printf_lld                              0x00024268   ARM Code       0  _printf_lld.o(.ARM.Collect$$_printf_percent$$0000000E)
    _printf_llu                              0x00024270   ARM Code       0  _printf_llu.o(.ARM.Collect$$_printf_percent$$0000000F)
    _printf_llo                              0x00024278   ARM Code       0  _printf_llo.o(.ARM.Collect$$_printf_percent$$00000010)
    _printf_llx                              0x00024280   ARM Code       0  _printf_llx.o(.ARM.Collect$$_printf_percent$$00000011)
    _printf_l                                0x00024288   ARM Code       0  _printf_l.o(.ARM.Collect$$_printf_percent$$00000012)
    _printf_c                                0x00024294   ARM Code       0  _printf_c.o(.ARM.Collect$$_printf_percent$$00000013)
    _printf_s                                0x0002429c   ARM Code       0  _printf_s.o(.ARM.Collect$$_printf_percent$$00000014)
    _printf_lc                               0x000242a4   ARM Code       0  _printf_lc.o(.ARM.Collect$$_printf_percent$$00000015)
    _printf_ls                               0x000242ac   ARM Code       0  _printf_ls.o(.ARM.Collect$$_printf_percent$$00000016)
    _printf_percent_end                      0x000242b4   ARM Code       0  _printf_percent_end.o(.ARM.Collect$$_printf_percent$$00000017)
    __rt_lib_init                            0x000242bd   Thumb Code     0  libinit.o(.ARM.Collect$$libinit$$00000000)
    __rt_lib_init_fp_1                       0x000242bf   Thumb Code     0  libinit2.o(.ARM.Collect$$libinit$$00000002)
    __rt_lib_init_heap_1                     0x000242bf   Thumb Code     0  libinit2.o(.ARM.Collect$$libinit$$0000000A)
    __rt_lib_init_lc_common                  0x000242bf   Thumb Code     0  libinit2.o(.ARM.Collect$$libinit$$0000000F)
    __rt_lib_init_preinit_1                  0x000242bf   Thumb Code     0  libinit2.o(.ARM.Collect$$libinit$$00000004)
    __rt_lib_init_rand_1                     0x000242bf   Thumb Code     0  libinit2.o(.ARM.Collect$$libinit$$0000000E)
    __rt_lib_init_user_alloc_1               0x000242bf   Thumb Code     0  libinit2.o(.ARM.Collect$$libinit$$0000000C)
    __rt_lib_init_lc_collate_1               0x000242c5   Thumb Code     0  libinit2.o(.ARM.Collect$$libinit$$00000011)
    __rt_lib_init_lc_ctype_2                 0x000242c5   Thumb Code     0  libinit2.o(.ARM.Collect$$libinit$$00000012)
    __rt_lib_init_lc_ctype_1                 0x000242d1   Thumb Code     0  libinit2.o(.ARM.Collect$$libinit$$00000013)
    __rt_lib_init_lc_monetary_1              0x000242d1   Thumb Code     0  libinit2.o(.ARM.Collect$$libinit$$00000015)
    __rt_lib_init_lc_numeric_2               0x000242d1   Thumb Code     0  libinit2.o(.ARM.Collect$$libinit$$00000016)
    __rt_lib_init_alloca_1                   0x000242db   Thumb Code     0  libinit2.o(.ARM.Collect$$libinit$$0000002E)
    __rt_lib_init_argv_1                     0x000242db   Thumb Code     0  libinit2.o(.ARM.Collect$$libinit$$0000002C)
    __rt_lib_init_atexit_1                   0x000242db   Thumb Code     0  libinit2.o(.ARM.Collect$$libinit$$0000001B)
    __rt_lib_init_clock_1                    0x000242db   Thumb Code     0  libinit2.o(.ARM.Collect$$libinit$$00000021)
    __rt_lib_init_cpp_1                      0x000242db   Thumb Code     0  libinit2.o(.ARM.Collect$$libinit$$00000032)
    __rt_lib_init_exceptions_1               0x000242db   Thumb Code     0  libinit2.o(.ARM.Collect$$libinit$$00000030)
    __rt_lib_init_fp_trap_1                  0x000242db   Thumb Code     0  libinit2.o(.ARM.Collect$$libinit$$0000001F)
    __rt_lib_init_getenv_1                   0x000242db   Thumb Code     0  libinit2.o(.ARM.Collect$$libinit$$00000023)
    __rt_lib_init_lc_numeric_1               0x000242db   Thumb Code     0  libinit2.o(.ARM.Collect$$libinit$$00000017)
    __rt_lib_init_lc_time_1                  0x000242db   Thumb Code     0  libinit2.o(.ARM.Collect$$libinit$$00000019)
    __rt_lib_init_return                     0x000242db   Thumb Code     0  libinit2.o(.ARM.Collect$$libinit$$00000033)
    __rt_lib_init_signal_1                   0x000242db   Thumb Code     0  libinit2.o(.ARM.Collect$$libinit$$0000001D)
    __rt_lib_init_stdio_1                    0x000242db   Thumb Code     0  libinit2.o(.ARM.Collect$$libinit$$00000025)
    __rt_lib_shutdown                        0x000242dd   Thumb Code     0  libshutdown.o(.ARM.Collect$$libshutdown$$00000000)
    __rt_lib_shutdown_cpp_1                  0x000242df   Thumb Code     0  libshutdown2.o(.ARM.Collect$$libshutdown$$00000002)
    __rt_lib_shutdown_fp_trap_1              0x000242df   Thumb Code     0  libshutdown2.o(.ARM.Collect$$libshutdown$$00000007)
    __rt_lib_shutdown_heap_1                 0x000242df   Thumb Code     0  libshutdown2.o(.ARM.Collect$$libshutdown$$0000000F)
    __rt_lib_shutdown_return                 0x000242df   Thumb Code     0  libshutdown2.o(.ARM.Collect$$libshutdown$$00000010)
    __rt_lib_shutdown_signal_1               0x000242df   Thumb Code     0  libshutdown2.o(.ARM.Collect$$libshutdown$$0000000A)
    __rt_lib_shutdown_stdio_1                0x000242df   Thumb Code     0  libshutdown2.o(.ARM.Collect$$libshutdown$$00000004)
    __rt_lib_shutdown_user_alloc_1           0x000242df   Thumb Code     0  libshutdown2.o(.ARM.Collect$$libshutdown$$0000000C)
    __rt_entry                               0x000242e0   ARM Code       0  __rtentry.o(.ARM.Collect$$rtentry$$00000000)
    __rt_entry_presh_1                       0x000242e0   ARM Code       0  __rtentry2.o(.ARM.Collect$$rtentry$$00000002)
    __rt_entry_sh                            0x000242e0   ARM Code       0  __rtentry4.o(.ARM.Collect$$rtentry$$00000004)
    __rt_entry_li                            0x000242e8   ARM Code       0  __rtentry2.o(.ARM.Collect$$rtentry$$0000000A)
    __rt_entry_postsh_1                      0x000242e8   ARM Code       0  __rtentry2.o(.ARM.Collect$$rtentry$$00000009)
    __rt_entry_main                          0x000242ec   ARM Code       0  __rtentry2.o(.ARM.Collect$$rtentry$$0000000D)
    __rt_entry_postli_1                      0x000242ec   ARM Code       0  __rtentry2.o(.ARM.Collect$$rtentry$$0000000C)
    __rt_exit                                0x00024314   ARM Code       0  rtexit.o(.ARM.Collect$$rtexit$$00000000)
    __rt_exit_ls                             0x00024318   ARM Code       0  rtexit2.o(.ARM.Collect$$rtexit$$00000003)
    __rt_exit_prels_1                        0x00024318   ARM Code       0  rtexit2.o(.ARM.Collect$$rtexit$$00000002)
    __rt_exit_exit                           0x0002431c   ARM Code       0  rtexit2.o(.ARM.Collect$$rtexit$$00000004)
    assert_err                               0x00024325   Thumb Code    18  arch_main_1.o(.text)
    assert_param                             0x00024337   Thumb Code    22  arch_main_1.o(.text)
    assert_warn                              0x0002434d   Thumb Code    22  arch_main_1.o(.text)
    dump_data                                0x00024363   Thumb Code    18  arch_main_1.o(.text)
    platform_reset                           0x00024375   Thumb Code    46  arch_main_1.o(.text)
    sys_mode_init                            0x000243a3   Thumb Code     8  arch_main_1.o(.text)
    rw_dut_enter                             0x000243ab   Thumb Code     6  arch_main_1.o(.text)
    rw_app_enter                             0x000243b1   Thumb Code   112  arch_main_1.o(.text)
    bdaddr_env_init                          0x00024421   Thumb Code   146  arch_main_1.o(.text)
    rom_env_init                             0x000244b3   Thumb Code    94  arch_main_1.o(.text)
    rwip_eif_api_init                        0x0002453d   Thumb Code    20  arch_main_1.o(.text)
    main                                     0x00024551   Thumb Code   270  arch_main_1.o(.text)
    rwip_eif_get                             0x0002465f   Thumb Code    30  arch_main_1.o(.text)
    mesh_buffer_to_hex                       0x00024a75   Thumb Code    56  mesh_log.o(.text)
    mem_rcopy                                0x00024aad   Thumb Code    26  mesh_log.o(.text)
    rwble_hl_init                            0x00024ad1   Thumb Code    28  rwble_hl.o(.text)
    rwble_hl_reset                           0x00024aed   Thumb Code    28  rwble_hl.o(.text)
    rwble_init                               0x00024b09   Thumb Code    34  rwble.o(.text)
    rwble_reset                              0x00024b2b   Thumb Code    92  rwble.o(.text)
    rwble_sleep_check                        0x00024b87   Thumb Code    16  rwble.o(.text)
    rwble_activity_ongoing_check             0x00024b97   Thumb Code    30  rwble.o(.text)
    rwble_version                            0x00024bb5   Thumb Code    44  rwble.o(.text)
    rwble_isr                                0x00024be1   Thumb Code   574  rwble.o(.text)
    rwip_check_wakeup_boundary               0x00024e39   Thumb Code    34  rwip.o(.text)
    rwip_init                                0x00024e5b   Thumb Code   190  rwip.o(.text)
    rwip_reset                               0x00024f19   Thumb Code    62  rwip.o(.text)
    rwip_version                             0x00024f57   Thumb Code     8  rwip.o(.text)
    rwip_schedule                            0x00024f5f   Thumb Code    16  rwip.o(.text)
    rwip_prevent_sleep_set                   0x00024f6f   Thumb Code    74  rwip.o(.text)
    rwip_sleep                               0x00024fb9   Thumb Code   358  rwip.o(.text)
    rwip_wakeup                              0x0002511f   Thumb Code    46  rwip.o(.text)
    rwip_prevent_sleep_clear                 0x0002514d   Thumb Code    74  rwip.o(.text)
    rwip_wakeup_end                          0x00025197   Thumb Code    36  rwip.o(.text)
    rwip_us_2_lpcycles                       0x000251bb   Thumb Code    12  rwip.o(.text)
    rwip_wakeup_delay_set                    0x000251c7   Thumb Code    12  rwip.o(.text)
    rwip_prevent_sleep_get                   0x000251d3   Thumb Code     6  rwip.o(.text)
    rwip_sleep_enable                        0x000251d9   Thumb Code     6  rwip.o(.text)
    rwip_ext_wakeup_enable                   0x000251df   Thumb Code     6  rwip.o(.text)
    rwip_sleep_lpcycles_2_us                 0x000251e5   Thumb Code    50  rwip.o(.text)
    rwip_assert_err                          0x00025217   Thumb Code     2  rwip.o(.text)
    system_sleep_init                        0x00025279   Thumb Code    20  icu.o(.text)
    icu_init                                 0x0002528d   Thumb Code    84  icu.o(.text)
    icu_get_sleep_mode                       0x000252e1   Thumb Code     6  icu.o(.text)
    icu_set_sleep_mode                       0x000252e7   Thumb Code     6  icu.o(.text)
    cpu_reduce_voltage_sleep                 0x000252ed   Thumb Code    74  icu.o(.text)
    cpu_wakeup                               0x00025337   Thumb Code    38  icu.o(.text)
    cpu_idle_sleep                           0x0002535d   Thumb Code     8  icu.o(.text)
    switch_clk                               0x00025365   Thumb Code    82  icu.o(.text)
    bk3435_singleWaveCfg                     0x000253b7   Thumb Code    22  icu.o(.text)
    bk3435_set_power                         0x000253cd   Thumb Code    48  icu.o(.text)
    intc_spurious                            0x00025421   Thumb Code     2  intc.o(.text)
    intc_init                                0x00025423   Thumb Code    28  intc.o(.text)
    intc_stat_clear                          0x0002543f   Thumb Code     8  intc.o(.text)
    IRQ_Exception                            0x00025447   Thumb Code   110  intc.o(.text)
    FIQ_Exception                            0x000254b5   Thumb Code    46  intc.o(.text)
    store_uart_ringbuf_data                  0x000254f5   Thumb Code    74  uart.o(.text)
    read_uart_ringbuf_data                   0x0002553f   Thumb Code    74  uart.o(.text)
    uart_ringbuf_clean                       0x00025589   Thumb Code    22  uart.o(.text)
    Read_Uart_Buf                            0x0002559f   Thumb Code    28  uart.o(.text)
    Uart_Read_Byte                           0x000255bb   Thumb Code    10  uart.o(.text)
    uart_putchar                             0x000255c5   Thumb Code    34  uart.o(.text)
    uart_printf                              0x000255e7   Thumb Code    48  uart.o(.text)
    uart_printf_null                         0x00025617   Thumb Code     4  uart.o(.text)
    hex2Str                                  0x0002561b   Thumb Code    46  uart.o(.text)
    uart_print_int                           0x00025649   Thumb Code    48  uart.o(.text)
    cpu_delay                                0x00025679   Thumb Code    26  uart.o(.text)
    uart_init                                0x00025693   Thumb Code   196  uart.o(.text)
    uart_flow_on                             0x00025757   Thumb Code     2  uart.o(.text)
    uart_clear_rxfifo                        0x00025759   Thumb Code    32  uart.o(.text)
    uart_flow_off                            0x00025779   Thumb Code     4  uart.o(.text)
    uart_finish_transfers                    0x0002577d   Thumb Code    24  uart.o(.text)
    uart_read                                0x00025795   Thumb Code    68  uart.o(.text)
    uart_write                               0x000257d9   Thumb Code   114  uart.o(.text)
    uart_send                                0x0002584b   Thumb Code    22  uart.o(.text)
    uart_cb_register                         0x00025861   Thumb Code    10  uart.o(.text)
    uart_cb_clear                            0x0002586b   Thumb Code    14  uart.o(.text)
    uart_isr                                 0x00025879   Thumb Code   428  uart.o(.text)
    check_uart_stop                          0x00025a25   Thumb Code    10  uart.o(.text)
    fputc                                    0x00025a2f   Thumb Code    16  uart.o(.text)
    emi_init                                 0x00025a59   Thumb Code    20  emi.o(.text)
    set_flash_clk                            0x00025a71   Thumb Code    40  flash.o(.text)
    get_flash_ID                             0x00025a99   Thumb Code    34  flash.o(.text)
    flash_read_sr                            0x00025abb   Thumb Code    26  flash.o(.text)
    flash_write_sr                           0x00025ad5   Thumb Code   140  flash.o(.text)
    flash_wp_256k                            0x00025b61   Thumb Code    70  flash.o(.text)
    flash_wp_ALL                             0x00025ba7   Thumb Code    70  flash.o(.text)
    flash_advance_init                       0x00025bed   Thumb Code    62  flash.o(.text)
    clr_flash_qwfr                           0x00025c2b   Thumb Code    76  flash.o(.text)
    flash_set_dual_mode                      0x00025c77   Thumb Code    32  flash.o(.text)
    flash_init                               0x00025c97   Thumb Code    34  flash.o(.text)
    flash_set_line_mode                      0x00025cb9   Thumb Code     2  flash.o(.text)
    flash_erase_sector                       0x00025cbb   Thumb Code    36  flash.o(.text)
    flash_read_data                          0x00025cdf   Thumb Code   128  flash.o(.text)
    flash_write_data                         0x00025d5f   Thumb Code   180  flash.o(.text)
    flash_set_qe                             0x00025e13   Thumb Code   210  flash.o(.text)
    flash_read                               0x00025ee5   Thumb Code    46  flash.o(.text)
    flash_write                              0x00025f13   Thumb Code   114  flash.o(.text)
    udi_exchange_fdata_to_adjoining_next_sector 0x00025f85   Thumb Code   102  flash.o(.text)
    udi_exchange_fdata_to_adjoining_previous_sector 0x00025feb   Thumb Code    98  flash.o(.text)
    flash_erase                              0x0002604d   Thumb Code   124  flash.o(.text)
    timer_init                               0x000260ed   Thumb Code     2  timer.o(.text)
    timer_set_timeout                        0x000260ef   Thumb Code     6  timer.o(.text)
    timer_get_time                           0x000260f5   Thumb Code     6  timer.o(.text)
    timer_enable                             0x000260fb   Thumb Code     6  timer.o(.text)
    timer_isr                                0x00026101   Thumb Code    20  timer.o(.text)
    Delay_ms                                 0x0002614f   Thumb Code    26  rf_xvr.o(.text)
    kmod_calibration                         0x00026169   Thumb Code   280  rf_xvr.o(.text)
    init_analog_xvr_reg                      0x00026281   Thumb Code   186  rf_xvr.o(.text)
    initial_xver_BK3435V2_openLoop           0x0002633b   Thumb Code   262  rf_xvr.o(.text)
    rf_init                                  0x00026441   Thumb Code    36  rf_xvr.o(.text)
    Delay_us                                 0x00026465   Thumb Code    20  rf_xvr.o(.text)
    Delay                                    0x00026479   Thumb Code    20  rf_xvr.o(.text)
    CLK32K_AutoCali_init                     0x0002648d   Thumb Code    48  rf_xvr.o(.text)
    wdt_disable                              0x000265c1   Thumb Code    28  wdt.o(.text)
    wdt_enable                               0x000265dd   Thumb Code    38  wdt.o(.text)
    wdt_reset                                0x00026603   Thumb Code    36  wdt.o(.text)
    wdt_feed                                 0x00026627   Thumb Code    28  wdt.o(.text)
    gpio_config                              0x0002664d   Thumb Code   144  gpio.o(.text)
    gpio_get_input                           0x000266dd   Thumb Code    28  gpio.o(.text)
    gpio_set                                 0x000266f9   Thumb Code    36  gpio.o(.text)
    gpio_init                                0x0002671d   Thumb Code   298  gpio.o(.text)
    gpio_triger                              0x00026847   Thumb Code    20  gpio.o(.text)
    gpio_cb_register                         0x0002685b   Thumb Code    12  gpio.o(.text)
    gpio_isr                                 0x00026867   Thumb Code    34  gpio.o(.text)
    gpio_test_init                           0x00026889   Thumb Code    54  gpio.o(.text)
    gpio_sleep                               0x000268bf   Thumb Code    72  gpio.o(.text)
    gpio_wakeup                              0x00026907   Thumb Code    52  gpio.o(.text)
    DEBUG_MSG                                0x0002693b   Thumb Code     2  gpio.o(.text)
    pwm_init                                 0x00026951   Thumb Code   200  pwm.o(.text)
    pwm_duty_cycle                           0x00026a19   Thumb Code    20  pwm.o(.text)
    pwm_enable                               0x00026a2d   Thumb Code    20  pwm.o(.text)
    pwm_disable                              0x00026a41   Thumb Code    28  pwm.o(.text)
    pwm_int_enable                           0x00026a5d   Thumb Code    22  pwm.o(.text)
    pwm_int_disable                          0x00026a73   Thumb Code    22  pwm.o(.text)
    pwm_capture_value_get                    0x00026a89   Thumb Code    22  pwm.o(.text)
    pwm_int_handler_clear                    0x00026a9f   Thumb Code    14  pwm.o(.text)
    pwm_isr                                  0x00026aad   Thumb Code    52  pwm.o(.text)
    TIM_PWMChangeDuty                        0x00026ae1   Thumb Code    18  pwm.o(.text)
    bass_get_att_handle                      0x00026cb5   Thumb Code   126  bass.o(.text)
    bass_prf_itf_get                         0x00026d73   Thumb Code     6  bass.o(.text)
    bass_get_att_idx                         0x00026d79   Thumb Code   116  bass.o(.text)
    bass_exe_operation                       0x00026ded   Thumb Code   262  bass.o(.text)
    diss_compute_cfg_flag                    0x000271ed   Thumb Code    40  diss.o(.text)
    diss_prf_itf_get                         0x000272bf   Thumb Code     6  diss.o(.text)
    diss_handle_to_value                     0x000272c5   Thumb Code    54  diss.o(.text)
    diss_value_to_handle                     0x000272fb   Thumb Code    60  diss.o(.text)
    diss_check_val_len                       0x00027337   Thumb Code    42  diss.o(.text)
    fff0s_get_att_handle                     0x00027665   Thumb Code    50  fff0s.o(.text)
    fff0s_notify_fff1_lvl                    0x00027697   Thumb Code    64  fff0s.o(.text)
    fff0s_prf_itf_get                        0x000276d7   Thumb Code     6  fff0s.o(.text)
    fff0s_get_att_idx                        0x000276dd   Thumb Code    62  fff0s.o(.text)
    oad_save_reciveData                      0x00027a93   Thumb Code    32  oads.o(.text)
    oad_updating_user_section_begin          0x00027ab3   Thumb Code    24  oads.o(.text)
    oad_updating_user_section_pro            0x00027acb   Thumb Code   150  oads.o(.text)
    oad_updating_user_section_end            0x00027b61   Thumb Code    18  oads.o(.text)
    oadImgIdentifyWrite                      0x00027c55   Thumb Code   922  oads.o(.text)
    oadImgBlockWrite                         0x00027fef   Thumb Code   364  oads.o(.text)
    oads_prf_itf_get                         0x0002815b   Thumb Code     4  oads.o(.text)
    prf_init                                 0x000285b3   Thumb Code   112  prf.o(.text)
    prf_add_profile                          0x00028623   Thumb Code   144  prf.o(.text)
    prf_create                               0x000286b3   Thumb Code    50  prf.o(.text)
    prf_cleanup                              0x000286e5   Thumb Code    54  prf.o(.text)
    prf_env_get                              0x0002871b   Thumb Code    44  prf.o(.text)
    prf_src_task_get                         0x00028747   Thumb Code    16  prf.o(.text)
    prf_dst_task_get                         0x00028757   Thumb Code    16  prf.o(.text)
    prf_get_id_from_task                     0x00028767   Thumb Code    52  prf.o(.text)
    prf_get_task_from_id                     0x0002879b   Thumb Code    52  prf.o(.text)
    prf_pack_char_pres_fmt                   0x00028881   Thumb Code    30  prf_utils.o(.text)
    prf_pack_date_time                       0x0002889f   Thumb Code    32  prf_utils.o(.text)
    prf_unpack_date_time                     0x000288bf   Thumb Code    34  prf_utils.o(.text)
    appm_init                                0x000288e1   Thumb Code   116  app.o(.text)
    appm_add_svc                             0x00028955   Thumb Code    54  app.o(.text)
    appm_disconnect                          0x0002898b   Thumb Code    34  app.o(.text)
    appm_update_param                        0x000289ad   Thumb Code    68  app.o(.text)
    appm_get_dev_name                        0x000289f1   Thumb Code    16  app.o(.text)
    hci_ahi_event_send                       0x00028a01   Thumb Code    30  app.o(.text)
    appm_ble_is_connected                    0x00028a1f   Thumb Code    20  app.o(.text)
    app_mesh_init                            0x000292d5   Thumb Code    16  app_mesh.o(.text)
    app_mesh_add_mesh                        0x000292e5   Thumb Code    60  app_mesh.o(.text)
    user_models_bind_app_key                 0x00029321   Thumb Code    80  app_mesh.o(.text)
    app_ali_set_unprov_adv_state             0x00029371   Thumb Code    14  app_mesh.o(.text)
    app_ali_get_unprov_adv_state             0x0002937f   Thumb Code    24  app_mesh.o(.text)
    user_models_subs_group_addr              0x00029397   Thumb Code     8  app_mesh.o(.text)
    user_models_publish_set                  0x0002939f   Thumb Code    46  app_mesh.o(.text)
    app_mesh_add_models_server               0x000293cd   Thumb Code    16  app_mesh.o(.text)
    app_unprov_adv_timeout_set               0x00029515   Thumb Code    50  app_mesh.o(.text)
    app_light_param_set_handle               0x00029d91   Thumb Code   356  app_mm_msg.o(.text)
    app_models_msg_pro_handler               0x00029ef5   Thumb Code  1180  app_mm_msg.o(.text)
    app_mesh_enable                          0x0002a3a5   Thumb Code    32  mesh_general_api.o(.text)
    app_mesh_disable                         0x0002a3c5   Thumb Code    32  mesh_general_api.o(.text)
    app_store_mesh_info                      0x0002a3e5   Thumb Code    36  mesh_general_api.o(.text)
    app_relay_user_adv                       0x0002a409   Thumb Code    68  mesh_general_api.o(.text)
    sys_check_reset_src                      0x0002a44d   Thumb Code    32  mesh_general_api.o(.text)
    app_batt_init                            0x0002a4c9   Thumb Code    12  app_batt.o(.text)
    app_batt_add_bas                         0x0002a4d5   Thumb Code    44  app_batt.o(.text)
    app_batt_enable_prf                      0x0002a501   Thumb Code    44  app_batt.o(.text)
    app_batt_send_lvl                        0x0002a52d   Thumb Code    48  app_batt.o(.text)
    app_dis_init                             0x0002a633   Thumb Code     2  app_dis.o(.text)
    app_dis_add_dis                          0x0002a635   Thumb Code    42  app_dis.o(.text)
    app_fff0_init                            0x0002a6d1   Thumb Code    10  app_fff0.o(.text)
    app_fff0_add_fff0s                       0x0002a6db   Thumb Code    42  app_fff0.o(.text)
    app_fff1_send_lvl                        0x0002a705   Thumb Code    46  app_fff0.o(.text)
    app_oads_init                            0x0002a85d   Thumb Code     8  app_oads.o(.text)
    app_oad_add_oads                         0x0002a865   Thumb Code    62  app_oads.o(.text)
    app_oads_enable_prf                      0x0002a8a3   Thumb Code    42  app_oads.o(.text)
    app_ffc1_ntf_req                         0x0002a91d   Thumb Code    44  app_oads.o(.text)
    app_ffc2_ntf_req                         0x0002a949   Thumb Code    46  app_oads.o(.text)
    make_crc32_table                         0x0002aa4d   Thumb Code    42  oad_common.o(.text)
    make_crc32                               0x0002aa77   Thumb Code    28  oad_common.o(.text)
    oads_erase_backup_sec                    0x0002aa93   Thumb Code    66  oad_common.o(.text)
    oad_get_psec_backup_header               0x0002aad5   Thumb Code    90  oad_common.o(.text)
    calc_backup_sec_crc                      0x0002ab2f   Thumb Code   208  oad_common.o(.text)
    user_data_read_ali_secret_key            0x0002aec1   Thumb Code    56  ali_config.o(.text)
    user_data_read_ali_product_id            0x0002aef9   Thumb Code    30  ali_config.o(.text)
    user_data_read_ali_mac                   0x0002af17   Thumb Code    76  ali_config.o(.text)
    user_data_contains_ali_data              0x0002af63   Thumb Code   100  ali_config.o(.text)
    light_scene_server_data                  0x0002b05d   Thumb Code   166  app_light_ali_server.o(.text)
    light_state_store_timer_cb               0x0002b103   Thumb Code    34  app_light_ali_server.o(.text)
    light_power_on_timeout_cb                0x0002b125   Thumb Code    30  app_light_ali_server.o(.text)
    light_prov_success_flash_timer_cb        0x0002b143   Thumb Code    74  app_light_ali_server.o(.text)
    light_prov_fail_flash_timer_cb           0x0002b18d   Thumb Code    78  app_light_ali_server.o(.text)
    light_prov_start                         0x0002b1db   Thumb Code    26  app_light_ali_server.o(.text)
    light_prov_end                           0x0002b1f5   Thumb Code    26  app_light_ali_server.o(.text)
    light_prov_complete                      0x0002b20f   Thumb Code    30  app_light_ali_server.o(.text)
    light_prov_fail                          0x0002b22d   Thumb Code    26  app_light_ali_server.o(.text)
    light_status_report_timer_cb             0x0002b247   Thumb Code   100  app_light_ali_server.o(.text)
    ali_light_status_report                  0x0002b2ab   Thumb Code    58  app_light_ali_server.o(.text)
    light_unBind_flash_timer_cb              0x0002b2e5   Thumb Code    74  app_light_ali_server.o(.text)
    light_unBind_complete                    0x0002b32f   Thumb Code    78  app_light_ali_server.o(.text)
    light_ali_quick_onoff_timer              0x0002b37d   Thumb Code    44  app_light_ali_server.o(.text)
    light_ali_app_init                       0x0002b3a9   Thumb Code  1004  app_light_ali_server.o(.text)
    app_ai_lights_models_init                0x0002b795   Thumb Code   304  app_light_ali_server.o(.text)
    light_lighten                            0x0002b931   Thumb Code   104  led.o(.text)
    light_periodic_ctrl                      0x0002b999   Thumb Code   246  led.o(.text)
    pwm6_irq_done                            0x0002ba8f   Thumb Code    12  led.o(.text)
    light_cwrgb_init                         0x0002ba9b   Thumb Code   164  led.o(.text)
    led_deinit                               0x0002bb3f   Thumb Code    48  led.o(.text)
    hue_2_rgb                                0x0002bb6f   Thumb Code   142  led.o(.text)
    hsl_2_rgb                                0x0002bbfd   Thumb Code   408  led.o(.text)
    rgb_2_hsl                                0x0002bd95   Thumb Code   216  led.o(.text)
    rgb_2_ctl                                0x0002be8d   Thumb Code    88  led.o(.text)
    temperature_to_rgb                       0x0002bee5   Thumb Code    38  led.o(.text)
    light_mode_get                           0x0002bf2b   Thumb Code     6  led.o(.text)
    light_state_get                          0x0002bf31   Thumb Code     6  led.o(.text)
    light_set_cwrgb                          0x0002bf37   Thumb Code   132  led.o(.text)
    light_set_hsl_hue                        0x0002bfbb   Thumb Code    18  led.o(.text)
    light_set_hsl_saturation                 0x0002bfcd   Thumb Code    18  led.o(.text)
    light_set_hsl_lightness                  0x0002bfdf   Thumb Code    18  led.o(.text)
    light_set_hsl                            0x0002bff1   Thumb Code   136  led.o(.text)
    light_set_ctl_temp                       0x0002c079   Thumb Code    24  led.o(.text)
    light_set_ctl                            0x0002c091   Thumb Code   120  led.o(.text)
    light_mode_set                           0x0002c109   Thumb Code    14  led.o(.text)
    light_state_set                          0x0002c117   Thumb Code     6  led.o(.text)
    light_lightness_set                      0x0002c11d   Thumb Code    38  led.o(.text)
    light_hsl_lightness_set                  0x0002c143   Thumb Code  1088  led.o(.text)
    LED_default_ctrl_param_set               0x0002c583   Thumb Code     8  led.o(.text)
    light_status_init                        0x0002c58b   Thumb Code    18  led.o(.text)
    light_factory_reset                      0x0002c59d   Thumb Code    18  led.o(.text)
    light_state_recover                      0x0002c5af   Thumb Code    16  led.o(.text)
    light_app_nv_restore                     0x0002c5bf   Thumb Code   160  led.o(.text)
    light_state_nv_store                     0x0002c65f   Thumb Code   102  led.o(.text)
    m_api_set                                0x0002c845   Thumb Code   106  m_api.o(.text)
    m_api_enable                             0x0002c8af   Thumb Code    58  m_api.o(.text)
    m_api_disable                            0x0002c8e9   Thumb Code    48  m_api.o(.text)
    m_api_buf_alloc                          0x0002c919   Thumb Code    14  m_api.o(.text)
    m_api_buf_release                        0x0002c927   Thumb Code     8  m_api.o(.text)
    m_api_model_publish                      0x0002c92f   Thumb Code    12  m_api.o(.text)
    m_api_model_rsp_send                     0x0002c93b   Thumb Code    22  m_api.o(.text)
    m_api_model_opcode_status                0x0002c951   Thumb Code     8  m_api.o(.text)
    m_api_register_model                     0x0002c959   Thumb Code    40  m_api.o(.text)
    m_api_storage_load                       0x0002c981   Thumb Code    32  m_api.o(.text)
    m_api_storage_save                       0x0002c9a1   Thumb Code    18  m_api.o(.text)
    m_api_storage_config                     0x0002c9b3   Thumb Code    22  m_api.o(.text)
    m_api_iv_upd_test_mode                   0x0002c9c9   Thumb Code     8  m_api.o(.text)
    m_api_health_status_send                 0x0002c9d1   Thumb Code     8  m_api.o(.text)
    m_api_health_cfm                         0x0002c9d9   Thumb Code    12  m_api.o(.text)
    m_api_compo_data_cfm                     0x0002c9e5   Thumb Code     8  m_api.o(.text)
    m_api_prov_param_rsp                     0x0002c9ed   Thumb Code     8  m_api.o(.text)
    m_api_prov_oob_auth_rsp                  0x0002c9f5   Thumb Code     8  m_api.o(.text)
    m_api_prov_pub_key_read                  0x0002c9fd   Thumb Code    22  m_api.o(.text)
    m_api_proxy_ctrl                         0x0002ca13   Thumb Code    12  m_api.o(.text)
    m_api_handler                            0x0002ca1f   Thumb Code    20  m_api.o(.text)
    m_api_init                               0x0002ca33   Thumb Code   148  m_api.o(.text)
    m_api_get_env_size                       0x0002cac7   Thumb Code   104  m_api.o(.text)
    m_api_send_attention_update_ind          0x0002cb2f   Thumb Code     8  m_api.o(.text)
    m_api_send_compo_data_req_ind            0x0002cb37   Thumb Code     8  m_api.o(.text)
    m_api_send_fault_get_req_ind             0x0002cb3f   Thumb Code     8  m_api.o(.text)
    m_api_send_fault_test_req_ind            0x0002cb47   Thumb Code     8  m_api.o(.text)
    m_api_send_fault_clear_ind               0x0002cb4f   Thumb Code     8  m_api.o(.text)
    m_api_send_fault_period_ind              0x0002cb57   Thumb Code     8  m_api.o(.text)
    m_api_send_update_ind                    0x0002cb5f   Thumb Code    50  m_api.o(.text)
    m_api_send_node_reset_ind                0x0002cb91   Thumb Code     8  m_api.o(.text)
    m_api_send_proxy_adv_update_ind          0x0002cb99   Thumb Code     8  m_api.o(.text)
    m_api_model_set_task_id                  0x0002cba1   Thumb Code     8  m_api.o(.text)
    m_api_model_get_task_id                  0x0002cba9   Thumb Code     8  m_api.o(.text)
    m_api_send_model_app_bind_ind            0x0002cbb1   Thumb Code   370  m_api.o(.text)
    m_api_send_key_ind                       0x0002cd23   Thumb Code    78  m_api.o(.text)
    m_api_send_model_subs_ind                0x0002cd71   Thumb Code    52  m_api.o(.text)
    m_api_msg_init                           0x0002d16d   Thumb Code    18  m_api_msg.o(.text)
    m_api_msg_get_env_size                   0x0002d17f   Thumb Code     4  m_api_msg.o(.text)
    m_api_msg_handler                        0x0002d183   Thumb Code   290  m_api_msg.o(.text)
    mesh_api_init                            0x0002d3d5   Thumb Code    46  mesh_api.o(.text)
    mesh_api_get_env_size                    0x0002d403   Thumb Code    34  mesh_api.o(.text)
    mesh_api_handler                         0x0002d425   Thumb Code    20  mesh_api.o(.text)
    mesh_api_set                             0x0002d439   Thumb Code    20  mesh_api.o(.text)
    mesh_api_get_run_time                    0x0002d44d   Thumb Code     8  mesh_api.o(.text)
    mesh_api_get_version                     0x0002d455   Thumb Code    20  mesh_api.o(.text)
    mesh_api_set_run_time                    0x0002d469   Thumb Code    10  mesh_api.o(.text)
    mesh_api_buf_alloc_block                 0x0002d473   Thumb Code     8  mesh_api.o(.text)
    mesh_api_buf_free_block                  0x0002d47b   Thumb Code    24  mesh_api.o(.text)
    mesh_api_msg_init                        0x0002d587   Thumb Code    12  mesh_api_msg.o(.text)
    mesh_api_msg_get_env_size                0x0002d593   Thumb Code     4  mesh_api_msg.o(.text)
    mesh_api_msg_handler                     0x0002d597   Thumb Code    26  mesh_api_msg.o(.text)
    mesh_stack_param_init                    0x0002d5e1   Thumb Code    48  mesh_param_int.o(.text)
    mesh_stack_param_unprov_bcn_intv_ms_set  0x0002d611   Thumb Code     6  mesh_param_int.o(.text)
    mm_api_msg_init                          0x0002d7ab   Thumb Code    12  mm_api_msg.o(.text)
    mm_api_msg_get_env_size                  0x0002d7b7   Thumb Code     4  mm_api_msg.o(.text)
    mm_api_msg_handler                       0x0002d7bb   Thumb Code    24  mm_api_msg.o(.text)
    mm_api_set                               0x0002d899   Thumb Code    80  mm_api.o(.text)
    mm_api_register_server                   0x0002d8e9   Thumb Code    44  mm_api.o(.text)
    mm_api_register_server_prop              0x0002d915   Thumb Code     4  mm_api.o(.text)
    mm_api_srv_set                           0x0002d919   Thumb Code    62  mm_api.o(.text)
    mm_api_grp_add_local                     0x0002d957   Thumb Code    40  mm_api.o(.text)
    mm_api_enable                            0x0002d97f   Thumb Code     8  mm_api.o(.text)
    mm_api_init                              0x0002d987   Thumb Code   100  mm_api.o(.text)
    mm_api_get_env_size                      0x0002d9eb   Thumb Code    76  mm_api.o(.text)
    mm_api_handler                           0x0002da37   Thumb Code    30  mm_api.o(.text)
    mm_api_send_register_ind                 0x0002da55   Thumb Code     8  mm_api.o(.text)
    mm_api_send_srv_state_upd_ind            0x0002da5d   Thumb Code    14  mm_api.o(.text)
    mm_api_send_srv_array_state_upd_ind      0x0002da6b   Thumb Code    16  mm_api.o(.text)
    mm_api_send_srv_state_req_ind            0x0002da7b   Thumb Code     8  mm_api.o(.text)
    mm_api_send_srv_locg_upd_ind             0x0002da83   Thumb Code    14  mm_api.o(.text)
    mm_api_send_srv_locl_upd_ind             0x0002da91   Thumb Code    20  mm_api.o(.text)
    mm_api_send_srv_prop_get                 0x0002daa5   Thumb Code     8  mm_api.o(.text)
    mm_api_send_srv_prop_set                 0x0002daad   Thumb Code    20  mm_api.o(.text)
    m_fnd_blob_init                          0x0002df7f   Thumb Code   154  m_fnd_blob_transfer.o(.text)
    m_fnd_blob_get_env_size                  0x0002e019   Thumb Code     4  m_fnd_blob_transfer.o(.text)
    m_fnd_fw_update_init                     0x0002e2d3   Thumb Code   146  m_fnd_fw_update.o(.text)
    m_fnd_fw_update_get_env_size             0x0002e365   Thumb Code     4  m_fnd_fw_update.o(.text)
    m_fnd_scenes_publish                     0x0002e415   Thumb Code    74  m_fnd_scenes.o(.text)
    m_fnd_scenes_init                        0x0002e71d   Thumb Code    78  m_fnd_scenes.o(.text)
    m_fnd_scenes_get_env_size                0x0002e76b   Thumb Code     4  m_fnd_scenes.o(.text)
    get_attr_info                            0x0002e7a9   Thumb Code    52  mm_vendors.o(.text)
    get_vendor_tid                           0x0002e7dd   Thumb Code    12  mm_vendors.o(.text)
    find_index_by_type                       0x0002e7e9   Thumb Code    32  mm_vendors.o(.text)
    mm_vendors_cfm_clear                     0x0002e95d   Thumb Code     8  mm_vendors.o(.text)
    mm_vendors_cfm_recved                    0x0002e965   Thumb Code     6  mm_vendors.o(.text)
    mm_vendors_cb_grp_event                  0x0002e9a7   Thumb Code   244  mm_vendors.o(.text)
    mm_vendors_register                      0x0002eaa9   Thumb Code   158  mm_vendors.o(.text)
    mm_vendors_cb_set_array_state            0x0002eb47   Thumb Code    74  mm_vendors.o(.text)
    mm_vendor_attr_indication                0x0002eb91   Thumb Code   330  mm_vendors.o(.text)
    mm_gens_init                             0x0002ee31   Thumb Code     4  mm_gens.o(.text)
    mm_gens_get_env_size                     0x0002ee35   Thumb Code     4  mm_gens.o(.text)
    mm_gens_register                         0x0002ee39   Thumb Code    86  mm_gens.o(.text)
    mm_gens_add_to_grp                       0x0002ee8f   Thumb Code    44  mm_gens.o(.text)
    mm_gens_oo_register                      0x0002f01d   Thumb Code   114  mm_gens_oo.o(.text)
    mm_gens_oo_cb_grp_event                  0x0002f08f   Thumb Code   132  mm_gens_oo.o(.text)
    mm_gens_oo_cb_trans_req                  0x0002f113   Thumb Code    58  mm_gens_oo.o(.text)
    mm_gens_oo_cb_set_state                  0x0002f14d   Thumb Code    26  mm_gens_oo.o(.text)
    mm_lights_init                           0x0002f891   Thumb Code     4  mm_lights.o(.text)
    mm_lights_get_env_size                   0x0002f895   Thumb Code     4  mm_lights.o(.text)
    mm_lights_register                       0x0002f899   Thumb Code    70  mm_lights.o(.text)
    mm_lights_isqrt                          0x0002f8df   Thumb Code    98  mm_lights.o(.text)
    mm_lights_ctl_register                   0x00030137   Thumb Code   378  mm_lights_ctl.o(.text)
    mm_lights_ctl_cb_grp_event               0x000302b1   Thumb Code   210  mm_lights_ctl.o(.text)
    mm_lights_ctl_cb_grp_event_temp          0x00030383   Thumb Code   204  mm_lights_ctl.o(.text)
    mm_lights_ctl_cb_trans_req               0x0003044f   Thumb Code   154  mm_lights_ctl.o(.text)
    mm_lights_ctl_cb_trans_req_temp          0x000304e9   Thumb Code   128  mm_lights_ctl.o(.text)
    mm_lights_hsl_bind                       0x00030eed   Thumb Code    48  mm_lights_hsl.o(.text)
    mm_lights_hsl_register                   0x00030f1d   Thumb Code    86  mm_lights_hsl.o(.text)
    mm_lights_hsl_cb_grp_event               0x00030f73   Thumb Code   170  mm_lights_hsl.o(.text)
    mm_lights_hsl_cb_grp_event_hue_sat       0x0003101d   Thumb Code   348  mm_lights_hsl.o(.text)
    mm_lights_hsl_cb_trans_req               0x00031179   Thumb Code   174  mm_lights_hsl.o(.text)
    mm_lights_hsl_cb_trans_req_hue_sat       0x00031227   Thumb Code   120  mm_lights_hsl.o(.text)
    mm_lights_ln_register                    0x00031d7d   Thumb Code   218  mm_lights_ln.o(.text)
    mm_lights_ln_cb_grp_event                0x00031e57   Thumb Code   200  mm_lights_ln.o(.text)
    mm_lights_ln_cb_trans_req                0x00031f1f   Thumb Code   170  mm_lights_ln.o(.text)
    mm_lights_ln_cb_set_state                0x00031fc9   Thumb Code   108  mm_lights_ln.o(.text)
    mm_lights_ln_get                         0x00032035   Thumb Code    66  mm_lights_ln.o(.text)
    mm_lights_ln_set_dflt                    0x00032077   Thumb Code   210  mm_lights_ln.o(.text)
    AES_set_encrypt_key                      0x000321e9   Thumb Code   652  aes.o(.text)
    AES_set_decrypt_key                      0x00032475   Thumb Code   346  aes.o(.text)
    AES_encrypt                              0x000325cf   Thumb Code   858  aes.o(.text)
    AES_decrypt                              0x00032929   Thumb Code   812  aes.o(.text)
    cbc128_encrypt                           0x00032c55   Thumb Code    90  aes.o(.text)
    cbc128_decrypt                           0x00032caf   Thumb Code    84  aes.o(.text)
    AES_cbc_encrypt                          0x00032d03   Thumb Code    12  aes.o(.text)
    AES_cbc_decrypt                          0x00032d0f   Thumb Code    12  aes.o(.text)
    aes_cbc_encrypt_pkcs7                    0x00032d1b   Thumb Code   186  aes.o(.text)
    aes_cbc_decrypt_pkcs7                    0x00032dd5   Thumb Code   150  aes.o(.text)
    gmas_get_att_handle                      0x00032f6d   Thumb Code    28  ais.o(.text)
    gmas_data_send                           0x00032f89   Thumb Code    88  ais.o(.text)
    gmas_prf_itf_get                         0x00032fe1   Thumb Code     6  ais.o(.text)
    gmas_get_att_idx                         0x00032fe7   Thumb Code    34  ais.o(.text)
    app_gma_add_gmas                         0x00033265   Thumb Code    38  app_ais.o(.text)
    app_gma_data_send                        0x0003329f   Thumb Code    52  app_ais.o(.text)
    aes_iv_set                               0x000332dd   Thumb Code    18  gma.o(.text)
    ali_digest_cal                           0x000332ef   Thumb Code   212  gma.o(.text)
    gma_init                                 0x000333c3   Thumb Code    86  gma.o(.text)
    gma_flag_clear                           0x00033419   Thumb Code    14  gma.o(.text)
    gma_ota_is_ongoing                       0x00033427   Thumb Code     8  gma.o(.text)
    gma_data_send                            0x0003342f   Thumb Code   174  gma.o(.text)
    gma_send_dev_report                      0x000334dd   Thumb Code   170  gma.o(.text)
    gma_reply_app_req                        0x00033587   Thumb Code   172  gma.o(.text)
    gma_recv_app_req                         0x00033633   Thumb Code   118  gma.o(.text)
    gma_send_dev_req                         0x000336a9   Thumb Code   436  gma.o(.text)
    gma_recv_dev_rsp                         0x0003385d   Thumb Code    98  gma.o(.text)
    gma_recv_app_cmd                         0x000338bf   Thumb Code    96  gma.o(.text)
    gma_reply_app_manu_req                   0x0003391f   Thumb Code   162  gma.o(.text)
    gma_recv_app_manu_req                    0x000339c1   Thumb Code   110  gma.o(.text)
    gma_send_dev_error                       0x00033a2f   Thumb Code   162  gma.o(.text)
    gma_reply_auth_start                     0x00033ad1   Thumb Code   124  gma.o(.text)
    gma_recv_auth_start                      0x00033b4d   Thumb Code   370  gma.o(.text)
    gma_reply_auth_result                    0x00033cbf   Thumb Code    60  gma.o(.text)
    gma_recv_auth_result                     0x00033cfb   Thumb Code    60  gma.o(.text)
    gma_reply_auth_confirm_net               0x00033d37   Thumb Code   146  gma.o(.text)
    gma_recv_auth_confirm_net                0x00033dc9   Thumb Code   154  gma.o(.text)
    gma_reply_dev_info                       0x00033e63   Thumb Code   204  gma.o(.text)
    gma_recv_dev_info                        0x00033f2f   Thumb Code   132  gma.o(.text)
    gma_reply_active                         0x00033fb3   Thumb Code   184  gma.o(.text)
    gma_recv_active                          0x0003406b   Thumb Code    24  gma.o(.text)
    gma_reply_status_set                     0x00034083   Thumb Code   420  gma.o(.text)
    gma_recv_status_set                      0x00034227   Thumb Code   238  gma.o(.text)
    gma_reply_dev_param                      0x00034315   Thumb Code   164  gma.o(.text)
    gma_recv_dev_param                       0x000343b9   Thumb Code   274  gma.o(.text)
    genCrc16CCITT                            0x000344cb   Thumb Code    50  gma.o(.text)
    gma_ota_calc_crc                         0x000344fd   Thumb Code   100  gma.o(.text)
    gma_ota_wdt_reset_flag_set               0x00034561   Thumb Code     8  gma.o(.text)
    gma_ota_write_flash                      0x00034569   Thumb Code    74  gma.o(.text)
    gma_ota_save_data                        0x000345b3   Thumb Code    28  gma.o(.text)
    gma_ota_end_result                       0x000345cf   Thumb Code    34  gma.o(.text)
    gma_reply_ota_fw_ver                     0x000345f1   Thumb Code   606  gma.o(.text)
    gma_recv_ota_fw_ver                      0x0003484f   Thumb Code   106  gma.o(.text)
    gma_reply_ota_start                      0x000348b9   Thumb Code   180  gma.o(.text)
    gma_recv_ota_start                       0x0003496d   Thumb Code   228  gma.o(.text)
    gma_reply_ota_end_check                  0x00034a51   Thumb Code   212  gma.o(.text)
    gma_recv_ota_end_check                   0x00034b25   Thumb Code   104  gma.o(.text)
    gma_reply_ota_pdu                        0x00034b8d   Thumb Code   244  gma.o(.text)
    gma_recv_ota_pdu                         0x00034c81   Thumb Code   114  gma.o(.text)
    gma_recv_proc                            0x00034cf3   Thumb Code   334  gma.o(.text)
    gma_recv_decode                          0x00034e41   Thumb Code    90  gma.o(.text)
    sha256_transform                         0x00034f1d   Thumb Code   352  sha256.o(.text)
    ali_sha256_init                          0x0003507d   Thumb Code    42  sha256.o(.text)
    ali_sha256_update                        0x000350a7   Thumb Code    66  sha256.o(.text)
    ali_sha256_final                         0x000350e9   Thumb Code   190  sha256.o(.text)
    XVR_Initial                              0x000351cd   Thumb Code   304  rf_pn9_test.o(.text)
    Test_XVR_PN9_Rx_Ena                      0x000352fd   Thumb Code    32  rf_pn9_test.o(.text)
    Test_XVR_Single_Carrier_Tx_Ena1          0x0003531d   Thumb Code    30  rf_pn9_test.o(.text)
    LockPn9Test                              0x0003533b   Thumb Code    26  rf_pn9_test.o(.text)
    GetBER                                   0x00035355   Thumb Code    16  rf_pn9_test.o(.text)
    rw_pn9_enter                             0x00035365   Thumb Code     2  rf_pn9_test.o(.text)
    pn9_test_process                         0x00035367   Thumb Code   164  rf_pn9_test.o(.text)
    lld_adv_test_start                       0x000356c5   Thumb Code  1154  lld_adv_test.o(.text)
    lld_adv_test_scan_start                  0x00035b47   Thumb Code  1044  lld_adv_test.o(.text)
    lld_adv_test_scan_stop                   0x00035f5b   Thumb Code    96  lld_adv_test.o(.text)
    lld_test_adv_report_check                0x00035fbb   Thumb Code   170  lld_adv_test.o(.text)
    lld_adv_test_rx_isr_cb                   0x00036065   Thumb Code   414  lld_adv_test.o(.text)
    lld_adv_test_end_cb                      0x00036203   Thumb Code   136  lld_adv_test.o(.text)
    lld_adv_test_init                        0x0003628b   Thumb Code    74  lld_adv_test.o(.text)
    mal_prf_itf_get                          0x000363f1   Thumb Code     4  mal.o(.text)
    mal_msg_alloc                            0x000363f5   Thumb Code    30  mal.o(.text)
    mal_msg_free                             0x00036413   Thumb Code    10  mal.o(.text)
    mal_msg_send                             0x0003641d   Thumb Code    34  mal.o(.text)
    mal_app_id_get                           0x0003643f   Thumb Code     8  mal.o(.text)
    mal_msg_src_id_get                       0x00036447   Thumb Code     6  mal.o(.text)
    mal_malloc                               0x0003644d   Thumb Code    10  mal.o(.text)
    mal_free                                 0x00036457   Thumb Code     8  mal.o(.text)
    mal_get_conidx                           0x0003645f   Thumb Code    10  mal.o(.text)
    mal_timer_init                           0x000364cb   Thumb Code    24  mal_timer.o(.text)
    mal_timer_get_time_ms                    0x000364e3   Thumb Code    50  mal_timer.o(.text)
    mal_timer_get_delay                      0x00036515   Thumb Code    90  mal_timer.o(.text)
    mal_timer_set                            0x0003656f   Thumb Code    28  mal_timer.o(.text)
    mal_timer_clear                          0x0003658b   Thumb Code    18  mal_timer.o(.text)
    mal_timer_set_clock                      0x0003659d   Thumb Code    10  mal_timer.o(.text)
    mal_timer_get_clock                      0x000365a7   Thumb Code    24  mal_timer.o(.text)
    mesh_timer_ind_handler                   0x000365bf   Thumb Code    10  mal_timer.o(.text)
    mesh_tb_init                             0x000365d9   Thumb Code    64  mesh_tb.o(.text)
    mesh_tb_get_env_size                     0x00036619   Thumb Code    48  mesh_tb.o(.text)
    mesh_tb_buf_block_alloc                  0x000366a5   Thumb Code   166  mesh_tb_buf.o(.text)
    mesh_tb_buf_init                         0x0003674b   Thumb Code   186  mesh_tb_buf.o(.text)
    mesh_tb_buf_get_env_size                 0x00036805   Thumb Code     6  mesh_tb_buf.o(.text)
    mesh_tb_buf_block_free                   0x0003680b   Thumb Code   118  mesh_tb_buf.o(.text)
    mesh_tb_buf_alloc                        0x00036881   Thumb Code   252  mesh_tb_buf.o(.text)
    mesh_tb_buf_head_reserve                 0x0003697d   Thumb Code    38  mesh_tb_buf.o(.text)
    mesh_tb_buf_head_release                 0x000369a3   Thumb Code    38  mesh_tb_buf.o(.text)
    mesh_tb_buf_tail_reserve                 0x000369c9   Thumb Code    38  mesh_tb_buf.o(.text)
    mesh_tb_buf_tail_release                 0x000369ef   Thumb Code    38  mesh_tb_buf.o(.text)
    mesh_tb_buf_acquire                      0x00036a15   Thumb Code     8  mesh_tb_buf.o(.text)
    mesh_tb_buf_release                      0x00036a1d   Thumb Code   284  mesh_tb_buf.o(.text)
    mesh_tb_buf_copy                         0x00036b39   Thumb Code    70  mesh_tb_buf.o(.text)
    mesh_tb_buf_copy_data_from_mem           0x00036b7f   Thumb Code    38  mesh_tb_buf.o(.text)
    mesh_tb_buf_copy_data_to_mem             0x00036ba5   Thumb Code    20  mesh_tb_buf.o(.text)
    mesh_tb_buf_reuse                        0x00036bb9   Thumb Code    44  mesh_tb_buf.o(.text)
    mesh_tb_buf_get_free_num                 0x00036be5   Thumb Code    18  mesh_tb_buf.o(.text)
    mesh_tb_timer_set                        0x00036cb9   Thumb Code    42  mesh_tb_timer.o(.text)
    mesh_tb_timer_init                       0x00036d19   Thumb Code    26  mesh_tb_timer.o(.text)
    mesh_tb_timer_get_env_size               0x00036d33   Thumb Code     4  mesh_tb_timer.o(.text)
    mesh_tb_timer_clear                      0x00036d37   Thumb Code     8  mesh_tb_timer.o(.text)
    mesh_tb_timer_expired                    0x00036d3f   Thumb Code    80  mesh_tb_timer.o(.text)
    mesh_tb_timer_get_cur_time               0x00036d8f   Thumb Code     8  mesh_tb_timer.o(.text)
    mesh_tb_timer_get_rem_duration           0x00036d97   Thumb Code    40  mesh_tb_timer.o(.text)
    mesh_tb_timer_get_tmr_rem_duration       0x00036dbf   Thumb Code    28  mesh_tb_timer.o(.text)
    m_bcn_proxy_subnet_update                0x00037041   Thumb Code    22  m_bcn.o(.text)
    m_bcn_get_env_size                       0x00037593   Thumb Code    18  m_bcn.o(.text)
    m_bcn_init                               0x000375a5   Thumb Code   138  m_bcn.o(.text)
    m_bcn_connect_api                        0x0003762f   Thumb Code     8  m_bcn.o(.text)
    m_bcn_subnet_update_ind                  0x00037637   Thumb Code    96  m_bcn.o(.text)
    m_bcn_start_tx_unprov_bcn                0x00037697   Thumb Code   170  m_bcn.o(.text)
    m_bcn_stop_tx_unprov_bcn                 0x00037741   Thumb Code   142  m_bcn.o(.text)
    m_bcn_state_update                       0x000377cf   Thumb Code   146  m_bcn.o(.text)
    m_bcn_proxy_con_start                    0x00037861   Thumb Code    46  m_bcn.o(.text)
    m_bearer_init                            0x00037a6f   Thumb Code   106  m_bearer.o(.text)
    m_bearer_get_env_size                    0x00037ad9   Thumb Code     6  m_bearer.o(.text)
    m_bearer_connect_client_cb               0x00037adf   Thumb Code    10  m_bearer.o(.text)
    m_bearer_start                           0x00037ae9   Thumb Code   112  m_bearer.o(.text)
    m_bearer_stop                            0x00037b59   Thumb Code   110  m_bearer.o(.text)
    m_bearer_started                         0x00037bc7   Thumb Code    36  m_bearer.o(.text)
    m_bearer_stopped                         0x00037beb   Thumb Code    36  m_bearer.o(.text)
    m_bearer_opened                          0x00037c0f   Thumb Code    52  m_bearer.o(.text)
    m_bearer_closed                          0x00037c43   Thumb Code   108  m_bearer.o(.text)
    m_bearer_sent                            0x00037caf   Thumb Code   484  m_bearer.o(.text)
    m_bearer_rx                              0x00037e93   Thumb Code   110  m_bearer.o(.text)
    m_fnd_init                               0x00037f05   Thumb Code    46  m_fnd.o(.text)
    m_fnd_get_env_size                       0x00037f33   Thumb Code    34  m_fnd.o(.text)
    m_fnd_hlths_init                         0x00038195   Thumb Code    48  m_fnd_hlths.o(.text)
    m_fnd_hlths_get_env_size                 0x000381c5   Thumb Code     4  m_fnd_hlths.o(.text)
    m_fnd_hlths_status_ind                   0x000381c9   Thumb Code    14  m_fnd_hlths.o(.text)
    m_fnd_hlths_cfm                          0x000381d7   Thumb Code    42  m_fnd_hlths.o(.text)
    m_lay_get_env_size                       0x000382f1   Thumb Code    88  m_lay.o(.text)
    m_lay_init                               0x00038349   Thumb Code   226  m_lay.o(.text)
    m_lay_access_init                        0x000387f3   Thumb Code    84  m_lay_access.o(.text)
    m_lay_access_get_env_size                0x00038847   Thumb Code     6  m_lay_access.o(.text)
    m_lay_access_connect_api_utrans          0x0003884d   Thumb Code     8  m_lay_access.o(.text)
    m_lay_access_publish                     0x00038855   Thumb Code   676  m_lay_access.o(.text)
    m_lay_access_rsp_send                    0x00038af9   Thumb Code   332  m_lay_access.o(.text)
    m_lay_access_opcode_status               0x00038c45   Thumb Code   124  m_lay_access.o(.text)
    m_lay_proxy_bearer_adv_ctrl              0x00039375   Thumb Code   258  m_lay_proxy.o(.text)
    m_lay_proxy_init                         0x0003993f   Thumb Code    78  m_lay_proxy.o(.text)
    m_lay_proxy_get_env_size                 0x0003998d   Thumb Code    14  m_lay_proxy.o(.text)
    m_lay_proxy_bearer_connect_api           0x0003999b   Thumb Code    12  m_lay_proxy.o(.text)
    m_lay_proxy_connect_api_net              0x000399a7   Thumb Code    12  m_lay_proxy.o(.text)
    m_lay_proxy_state_set                    0x000399b3   Thumb Code    54  m_lay_proxy.o(.text)
    m_prov_link_closed                       0x0003ad7d   Thumb Code   258  m_prov.o(.text)
    m_prov_init                              0x0003af13   Thumb Code   124  m_prov.o(.text)
    m_prov_get_env_size                      0x0003af8f   Thumb Code     4  m_prov.o(.text)
    m_prov_start                             0x0003afb9   Thumb Code    76  m_prov.o(.text)
    m_prov_oob_auth_rsp                      0x0003b005   Thumb Code   246  m_prov.o(.text)
    m_prov_param_rsp                         0x0003b0fb   Thumb Code    84  m_prov.o(.text)
    m_prov_pub_key_get                       0x0003b14f   Thumb Code   266  m_prov.o(.text)
    m_prov_bearer_open                       0x0003b259   Thumb Code    58  m_prov.o(.text)
    m_link_open_ack_dis                      0x0003b293   Thumb Code     8  m_prov.o(.text)
    m_link_open_ack_en                       0x0003b29b   Thumb Code     8  m_prov.o(.text)
    m_prov_link_open                         0x0003b2a3   Thumb Code   104  m_prov.o(.text)
    m_prov_link_ack                          0x0003b30b   Thumb Code    46  m_prov.o(.text)
    m_prov_pdu_rx                            0x0003b339   Thumb Code    52  m_prov.o(.text)
    m_prov_pdu_sent                          0x0003b36d   Thumb Code    62  m_prov.o(.text)
    m_prov_bearer_connect_api                0x0003b583   Thumb Code     8  m_prov_bearer.o(.text)
    m_prov_bearer_init                       0x0003b58b   Thumb Code    22  m_prov_bearer.o(.text)
    m_prov_bearer_send                       0x0003b5a1   Thumb Code    60  m_prov_bearer.o(.text)
    m_prov_bearer_close                      0x0003b5dd   Thumb Code    34  m_prov_bearer.o(.text)
    m_prov_bearer_gatt_send                  0x0003b5ff   Thumb Code    60  m_prov_bearer.o(.text)
    m_prov_bearer_gatt_start                 0x0003b63b   Thumb Code   172  m_prov_bearer.o(.text)
    m_prov_bearer_gatt_custom_adv_set        0x0003b6e7   Thumb Code    68  m_prov_bearer.o(.text)
    m_prov_bearer_gatt_stop                  0x0003b72b   Thumb Code    50  m_prov_bearer.o(.text)
    m_prov_bearer_scan_start                 0x0003b75d   Thumb Code    14  m_prov_bearer.o(.text)
    m_prov_bearer_scan_stop                  0x0003b76b   Thumb Code    14  m_prov_bearer.o(.text)
    m_tb_init                                0x0003b8e1   Thumb Code    82  m_tb.o(.text)
    m_tb_get_env_size                        0x0003b933   Thumb Code    62  m_tb.o(.text)
    m_tb_key_init                            0x0003bd37   Thumb Code   136  m_tb_key.o(.text)
    m_tb_key_get_env_size                    0x0003bdbf   Thumb Code     4  m_tb_key.o(.text)
    m_tb_key_dev_add                         0x0003bdc3   Thumb Code    66  m_tb_key.o(.text)
    m_tb_key_dev_get                         0x0003be05   Thumb Code    26  m_tb_key.o(.text)
    m_tb_key_net_add                         0x0003be1f   Thumb Code   182  m_tb_key.o(.text)
    m_tb_key_net_delete                      0x0003bed5   Thumb Code   190  m_tb_key.o(.text)
    m_tb_key_net_update                      0x0003bf93   Thumb Code   160  m_tb_key.o(.text)
    m_tb_key_net_use_new                     0x0003c033   Thumb Code    68  m_tb_key.o(.text)
    m_tb_key_net_revoke_old                  0x0003c077   Thumb Code   286  m_tb_key.o(.text)
    m_tb_key_net_find                        0x0003c195   Thumb Code    72  m_tb_key.o(.text)
    m_tb_key_net_next                        0x0003c1dd   Thumb Code    78  m_tb_key.o(.text)
    m_tb_key_net_get                         0x0003c22b   Thumb Code    66  m_tb_key.o(.text)
    m_tb_key_net_get_ids                     0x0003c26d   Thumb Code    86  m_tb_key.o(.text)
    m_tb_key_net_lid_from_nid                0x0003c2c3   Thumb Code    78  m_tb_key.o(.text)
    m_tb_key_app_add                         0x0003c311   Thumb Code   192  m_tb_key.o(.text)
    m_tb_key_app_delete                      0x0003c3d1   Thumb Code   292  m_tb_key.o(.text)
    m_tb_key_app_find                        0x0003c4f5   Thumb Code    46  m_tb_key.o(.text)
    m_tb_key_app_update                      0x0003c523   Thumb Code   602  m_tb_key.o(.text)
    m_tb_key_app_get                         0x0003c77d   Thumb Code    94  m_tb_key.o(.text)
    m_tb_key_app_lid_from_net_aid            0x0003c7db   Thumb Code   140  m_tb_key.o(.text)
    m_tb_key_app_get_ids                     0x0003c867   Thumb Code   126  m_tb_key.o(.text)
    m_tb_key_app_get_lids                    0x0003c8e5   Thumb Code    78  m_tb_key.o(.text)
    m_tb_key_model_bind                      0x0003c933   Thumb Code   266  m_tb_key.o(.text)
    m_tb_key_model_unbind                    0x0003ca3d   Thumb Code   780  m_tb_key.o(.text)
    m_tb_key_model_bind_check                0x0003cd49   Thumb Code    60  m_tb_key.o(.text)
    m_tb_model_bind_get_app_key_lid          0x0003cd85   Thumb Code    50  m_tb_key.o(.text)
    m_tb_key_set_iv_seq                      0x0003cdb7   Thumb Code    10  m_tb_key.o(.text)
    m_tb_key_get_iv_seq                      0x0003cdc1   Thumb Code    46  m_tb_key.o(.text)
    m_tb_key_get_cur_iv_seq                  0x0003cdef   Thumb Code    36  m_tb_key.o(.text)
    m_tb_key_get_iv_rx                       0x0003ce13   Thumb Code    24  m_tb_key.o(.text)
    m_tb_key_get_nb_net_keys                 0x0003ce2b   Thumb Code    10  m_tb_key.o(.text)
    m_tb_key_get_nb_app_keys                 0x0003ce35   Thumb Code    14  m_tb_key.o(.text)
    m_tb_key_get_model_appkey_ids            0x0003ce43   Thumb Code   134  m_tb_key.o(.text)
    m_tb_key_get_netkey_id                   0x0003cec9   Thumb Code    14  m_tb_key.o(.text)
    m_tb_key_get_node_identity               0x0003ced7   Thumb Code    32  m_tb_key.o(.text)
    m_tb_key_set_node_identity               0x0003cef7   Thumb Code    34  m_tb_key.o(.text)
    m_tb_key_get_net_from_net_id             0x0003cf19   Thumb Code    98  m_tb_key.o(.text)
    m_tb_key_get_phase                       0x0003cf7b   Thumb Code    14  m_tb_key.o(.text)
    m_tb_key_secure_bcn_rx_ind               0x0003cf89   Thumb Code    96  m_tb_key.o(.text)
    m_tb_key_phase_transition_ind            0x0003cfe9   Thumb Code    92  m_tb_key.o(.text)
    m_tb_key_get_net_info                    0x0003d045   Thumb Code    78  m_tb_key.o(.text)
    m_tb_key_iv_upd_test_mode_ind            0x0003d093   Thumb Code    66  m_tb_key.o(.text)
    m_tb_mio_init                            0x0003d31f   Thumb Code    42  m_tb_mio.o(.text)
    m_tb_mio_get_env_size                    0x0003d349   Thumb Code     4  m_tb_mio.o(.text)
    m_tb_mio_get_local_id                    0x0003d34d   Thumb Code    70  m_tb_mio.o(.text)
    m_tb_mio_register_model                  0x0003d393   Thumb Code   134  m_tb_mio.o(.text)
    m_tb_mio_get_nb_model                    0x0003d419   Thumb Code    14  m_tb_mio.o(.text)
    m_tb_mio_get_model_id                    0x0003d427   Thumb Code    14  m_tb_mio.o(.text)
    m_tb_mio_get_element_addr                0x0003d435   Thumb Code    42  m_tb_mio.o(.text)
    m_tb_mio_cb_get                          0x0003d45f   Thumb Code    38  m_tb_mio.o(.text)
    m_tb_mio_set_publi_param                 0x0003d485   Thumb Code   204  m_tb_mio.o(.text)
    m_tb_mio_get_publi_param                 0x0003d551   Thumb Code    96  m_tb_mio.o(.text)
    m_tb_mio_add_subscription                0x0003d5b1   Thumb Code   340  m_tb_mio.o(.text)
    m_tb_mio_add_subscription_virt           0x0003d705   Thumb Code   126  m_tb_mio.o(.text)
    m_tb_mio_delete_subscription             0x0003d783   Thumb Code    66  m_tb_mio.o(.text)
    m_tb_mio_delete_subscription_virt        0x0003d7c5   Thumb Code   132  m_tb_mio.o(.text)
    m_tb_mio_delete_all_subscription         0x0003d849   Thumb Code    64  m_tb_mio.o(.text)
    m_tb_mio_get_subscription_list_size      0x0003d889   Thumb Code    22  m_tb_mio.o(.text)
    m_tb_mio_get_subscription_list_size_vaddr 0x0003d89f   Thumb Code    14  m_tb_mio.o(.text)
    m_tb_mio_get_subscription_list           0x0003d8ad   Thumb Code   114  m_tb_mio.o(.text)
    m_tb_mio_is_dest_addr                    0x0003d91f   Thumb Code    96  m_tb_mio.o(.text)
    m_tb_mio_get_label_uuid                  0x0003d97f   Thumb Code    88  m_tb_mio.o(.text)
    m_tb_mio_bind                            0x0003d9d7   Thumb Code    30  m_tb_mio.o(.text)
    m_tb_mio_unbind                          0x0003d9f5   Thumb Code    66  m_tb_mio.o(.text)
    m_tb_mio_get_nb_bound_app                0x0003da37   Thumb Code    14  m_tb_mio.o(.text)
    m_tb_mio_get_period                      0x0003da45   Thumb Code    20  m_tb_mio.o(.text)
    m_tb_mio_set_prim_addr                   0x0003da59   Thumb Code    24  m_tb_mio.o(.text)
    m_tb_mio_get_prim_addr                   0x0003da71   Thumb Code    14  m_tb_mio.o(.text)
    m_tb_mio_is_local_addr                   0x0003da7f   Thumb Code    32  m_tb_mio.o(.text)
    m_tb_mio_get_vaddr                       0x0003da9f   Thumb Code    16  m_tb_mio.o(.text)
    m_tb_mio_get_nb_elements                 0x0003daaf   Thumb Code    14  m_tb_mio.o(.text)
    m_tb_mio_get_nb_models                   0x0003dabd   Thumb Code    80  m_tb_mio.o(.text)
    m_tb_mio_get_model_ids                   0x0003db0d   Thumb Code    86  m_tb_mio.o(.text)
    m_tb_mio_app_key_rem_ind                 0x0003db63   Thumb Code    76  m_tb_mio.o(.text)
    m_tb_mio_set_task_id                     0x0003dbaf   Thumb Code    14  m_tb_mio.o(.text)
    m_tb_mio_get_task_id                     0x0003dbbd   Thumb Code    14  m_tb_mio.o(.text)
    m_tb_store_update_ind                    0x0003dcd1   Thumb Code   282  m_tb_store_nvds.o(.text)
    m_tb_store_iv_seq_update                 0x0003ddeb   Thumb Code    36  m_tb_store_nvds.o(.text)
    m_tb_store_nvs_check                     0x0003de0f   Thumb Code    88  m_tb_store_nvds.o(.text)
    m_tb_stop_scan_before_store_nvs          0x0003dee5   Thumb Code    30  m_tb_store_nvds.o(.text)
    m_tb_store_nvs_after_stop_scan           0x0003df03   Thumb Code    12  m_tb_store_nvds.o(.text)
    m_tb_store_save                          0x0003df8b   Thumb Code    10  m_tb_store_nvds.o(.text)
    m_tb_store_init                          0x0003e201   Thumb Code    98  m_tb_store_nvds.o(.text)
    m_tb_store_get_env_size                  0x0003e263   Thumb Code     4  m_tb_store_nvds.o(.text)
    m_tb_store_config                        0x0003e267   Thumb Code    50  m_tb_store_nvds.o(.text)
    m_tb_store_load                          0x0003e299   Thumb Code    72  m_tb_store_nvds.o(.text)
    m_tb_store_get_compo_data                0x0003e2e1   Thumb Code    16  m_tb_store_nvds.o(.text)
    m_tb_store_rx_compo_data                 0x0003e2f1   Thumb Code    22  m_tb_store_nvds.o(.text)
    m_tb_state_init                          0x0003e881   Thumb Code   126  m_tb_state.o(.text)
    m_tb_state_get_env_size                  0x0003e8ff   Thumb Code     4  m_tb_state.o(.text)
    m_tb_state_set_hb_cb                     0x0003e903   Thumb Code     8  m_tb_state.o(.text)
    m_tb_state_set_enabled                   0x0003e90b   Thumb Code    18  m_tb_state.o(.text)
    m_tb_state_set_prov_state                0x0003e91d   Thumb Code    16  m_tb_state.o(.text)
    m_tb_state_set_default_ttl               0x0003e92d   Thumb Code    44  m_tb_state.o(.text)
    m_tb_state_set_beacon_state              0x0003e959   Thumb Code    32  m_tb_state.o(.text)
    m_tb_state_is_feature_sup                0x0003e979   Thumb Code    18  m_tb_state.o(.text)
    m_tb_state_set_gatt_proxy_state          0x0003e98b   Thumb Code    70  m_tb_state.o(.text)
    m_tb_state_set_relay_state               0x0003e9d1   Thumb Code    62  m_tb_state.o(.text)
    m_tb_state_set_net_tx_state              0x0003ea0f   Thumb Code    20  m_tb_state.o(.text)
    m_tb_state_set_net_tx_count              0x0003ea23   Thumb Code    10  m_tb_state.o(.text)
    m_tb_state_get_net_tx_count              0x0003ea2d   Thumb Code    10  m_tb_state.o(.text)
    m_tb_state_set_attention_state           0x0003ea37   Thumb Code    42  m_tb_state.o(.text)
    m_tb_state_set_hb_pub_params             0x0003ea61   Thumb Code   168  m_tb_state.o(.text)
    m_tb_state_set_hb_subs_params            0x0003eb09   Thumb Code   158  m_tb_state.o(.text)
    m_tb_state_get_prov_state                0x0003eba7   Thumb Code    12  m_tb_state.o(.text)
    m_tb_state_get_default_ttl               0x0003ebb3   Thumb Code    10  m_tb_state.o(.text)
    m_tb_state_get_beacon_state              0x0003ebbd   Thumb Code    12  m_tb_state.o(.text)
    m_tb_state_get_gatt_proxy_state          0x0003ebc9   Thumb Code    38  m_tb_state.o(.text)
    m_tb_state_get_relay_state               0x0003ebef   Thumb Code    42  m_tb_state.o(.text)
    m_tb_state_get_friend_state              0x0003ec19   Thumb Code    16  m_tb_state.o(.text)
    m_tb_state_get_net_tx_state              0x0003ec29   Thumb Code   208  m_tb_state.o(.text)
    m_tb_state_get_net_tx_params             0x0003ecf9   Thumb Code    28  m_tb_state.o(.text)
    m_tb_state_get_attention_state           0x0003ed15   Thumb Code    10  m_tb_state.o(.text)
    m_tb_state_get_nb_cdata_page             0x0003ed1f   Thumb Code    10  m_tb_state.o(.text)
    m_tb_state_get_compo_info                0x0003ed29   Thumb Code    38  m_tb_state.o(.text)
    m_tb_state_get_hb_pub_params             0x0003ed4f   Thumb Code     8  m_tb_state.o(.text)
    m_tb_state_get_hb_subs_params            0x0003ed57   Thumb Code     8  m_tb_state.o(.text)
    m_tb_state_get_hb_feat_upd               0x0003ed5f   Thumb Code    16  m_tb_state.o(.text)
    m_tb_state_is_enabled                    0x0003ed6f   Thumb Code    12  m_tb_state.o(.text)
    m_tb_state_is_iv_update_auth             0x0003ed7b   Thumb Code    60  m_tb_state.o(.text)
    m_tb_state_iv_update_ind                 0x0003edb7   Thumb Code    22  m_tb_state.o(.text)
    m_tb_state_net_key_rem_ind               0x0003edcd   Thumb Code    34  m_tb_state.o(.text)
    m_tb_state_hb_rx_ind                     0x0003edef   Thumb Code    48  m_tb_state.o(.text)
    m_tb_state_hb_tx_ind                     0x0003ee1f   Thumb Code    24  m_tb_state.o(.text)
    m_tb_state_hb_check_features             0x0003ee37   Thumb Code    40  m_tb_state.o(.text)
    m_tb_state_check_fixed_group_addr        0x0003ee5f   Thumb Code    42  m_tb_state.o(.text)
    mm_tb_init                               0x0003ee99   Thumb Code    64  mm_tb.o(.text)
    mm_tb_get_env_size                       0x0003eed9   Thumb Code    48  mm_tb.o(.text)
    mm_tb_get_trans_time                     0x0003ef09   Thumb Code    86  mm_tb.o(.text)
    mm_tb_get_trans_time_ms                  0x0003ef5f   Thumb Code    54  mm_tb.o(.text)
    mm_tb_bind_init                          0x0003f095   Thumb Code    48  mm_tb_bind.o(.text)
    mm_tb_bind_get_env_size                  0x0003f0c5   Thumb Code     4  mm_tb_bind.o(.text)
    mm_tb_bind_add_group                     0x0003f0c9   Thumb Code   170  mm_tb_bind.o(.text)
    mm_tb_bind_group_add_mdl                 0x0003f173   Thumb Code   176  mm_tb_bind.o(.text)
    mm_tb_bind_set_dft_trans_time            0x0003f223   Thumb Code    38  mm_tb_bind.o(.text)
    mm_tb_bind_set_state                     0x0003f249   Thumb Code    88  mm_tb_bind.o(.text)
    mm_tb_bind_trans_req                     0x0003f2a1   Thumb Code   142  mm_tb_bind.o(.text)
    mm_tb_bind_trans_array_req               0x0003f32f   Thumb Code   152  mm_tb_bind.o(.text)
    mm_tb_bind_trans_new                     0x0003f3c7   Thumb Code   494  mm_tb_bind.o(.text)
    mm_tb_bind_trans_reject                  0x0003f5b5   Thumb Code    66  mm_tb_bind.o(.text)
    mm_tb_bind_trans_abort                   0x0003f5f7   Thumb Code    24  mm_tb_bind.o(.text)
    mm_tb_bind_trans_start                   0x0003f60f   Thumb Code    88  mm_tb_bind.o(.text)
    mm_tb_bind_get_trans_info                0x0003f667   Thumb Code    96  mm_tb_bind.o(.text)
    mm_tb_replay_init                        0x0003f7f5   Thumb Code    64  mm_tb_replay.o(.text)
    mm_tb_replay_get_env_size                0x0003f835   Thumb Code    16  mm_tb_replay.o(.text)
    mm_tb_replay_is_retx                     0x0003f845   Thumb Code    96  mm_tb_replay.o(.text)
    mm_route_init                            0x0003fa4d   Thumb Code    22  mm_route.o(.text)
    mm_route_get_env_size                    0x0003fa63   Thumb Code     4  mm_route.o(.text)
    mm_route_buf_alloc                       0x0003fa67   Thumb Code    14  mm_route.o(.text)
    mm_route_buf_alloc_status                0x0003fa75   Thumb Code    50  mm_route.o(.text)
    mm_route_send                            0x0003faa7   Thumb Code    30  mm_route.o(.text)
    mm_tb_state_init                         0x0003fb25   Thumb Code    58  mm_tb_state.o(.text)
    mm_tb_state_get_env_size                 0x0003fb5f   Thumb Code     4  mm_tb_state.o(.text)
    mm_tb_state_register                     0x0003fb63   Thumb Code   132  mm_tb_state.o(.text)
    mm_tb_state_enable                       0x0003fbe7   Thumb Code    38  mm_tb_state.o(.text)
    mm_tb_state_get_env                      0x0003fc0d   Thumb Code    18  mm_tb_state.o(.text)
    mm_tb_state_get_lid                      0x0003fc1f   Thumb Code    46  mm_tb_state.o(.text)
    mm_tb_state_publish_param_ind            0x0003fc4d   Thumb Code    54  mm_tb_state.o(.text)
    mal_adv_init                             0x0003fdcd   Thumb Code    50  mal_adv.o(.text)
    mesh_adv_tx_done_handler                 0x0003fdff   Thumb Code    30  mal_adv.o(.text)
    mesh_adv_renew_ind_handler               0x0003fe1d   Thumb Code    20  mal_adv.o(.text)
    mal_adv_scan_stopped_handler             0x0003fe31   Thumb Code    42  mal_adv.o(.text)
    mal_adv_scan_started_handler             0x0003fe5b   Thumb Code    32  mal_adv.o(.text)
    mal_adv_report_handler                   0x0003fe7b   Thumb Code    74  mal_adv.o(.text)
    mal_adv_report_register                  0x0003fec5   Thumb Code    10  mal_adv.o(.text)
    mal_adv_report_is_register               0x0003fecf   Thumb Code    12  mal_adv.o(.text)
    mal_adv_report_unregister                0x0003fedb   Thumb Code    14  mal_adv.o(.text)
    mal_user_adv_report_handler              0x0003fee9   Thumb Code    12  mal_adv.o(.text)
    mal_user_adv_relay_handler               0x0003fef5   Thumb Code    26  mal_adv.o(.text)
    mal_con_init                             0x00040491   Thumb Code   320  mal_con.o(.text)
    mal_con_create                           0x000405d1   Thumb Code    16  mal_con.o(.text)
    mal_con_cleanup                          0x000405e1   Thumb Code   106  mal_con.o(.text)
    mal_con_gattc_read_req_handler           0x0004064b   Thumb Code   140  mal_con.o(.text)
    mal_con_gattc_write_req_handler          0x000406d7   Thumb Code   324  mal_con.o(.text)
    mal_con_gattc_cmp_evt_handler            0x0004081b   Thumb Code    32  mal_con.o(.text)
    mal_con_timer_ind_handler                0x0004083b   Thumb Code    24  mal_con.o(.text)
    mal_con_gapm_cmp_evt_handler             0x00040853   Thumb Code   146  mal_con.o(.text)
    mal_con_adv_started_ind_handler          0x000408e5   Thumb Code    42  mal_con.o(.text)
    mal_djob_init                            0x00040985   Thumb Code    32  mal_djob.o(.text)
    mal_djob_get_env_size                    0x000409a5   Thumb Code     4  mal_djob.o(.text)
    mal_djob_reg                             0x000409a9   Thumb Code    52  mal_djob.o(.text)
    gapm_use_enc_block_ind_handler           0x000409e5   Thumb Code    12  mal_sec.o(.text)
    gapm_pub_key_ind_handler                 0x000409f1   Thumb Code    32  mal_sec.o(.text)
    gapm_gen_dh_key_ind_handler              0x00040a11   Thumb Code    28  mal_sec.o(.text)
    mal_sec_cmp_evt_handler                  0x00040a2d   Thumb Code    36  mal_sec.o(.text)
    mal_sec_init                             0x00040a51   Thumb Code    18  mal_sec.o(.text)
    mal_sec_aes_req                          0x00040a63   Thumb Code    60  mal_sec.o(.text)
    mal_sec_aes                              0x00040a9f   Thumb Code     8  mal_sec.o(.text)
    mal_sec_rand                             0x00040aa7   Thumb Code     8  mal_sec.o(.text)
    mal_sec_aes_cmac                         0x00040aaf   Thumb Code     8  mal_sec.o(.text)
    mal_sec_aes_s1                           0x00040ab7   Thumb Code     8  mal_sec.o(.text)
    mal_sec_aes_k1                           0x00040abf   Thumb Code    16  mal_sec.o(.text)
    mal_sec_aes_k2                           0x00040acf   Thumb Code     8  mal_sec.o(.text)
    mal_sec_aes_k3                           0x00040ad7   Thumb Code     8  mal_sec.o(.text)
    mal_sec_aes_k4                           0x00040adf   Thumb Code     8  mal_sec.o(.text)
    mal_sec_aes_ccm                          0x00040ae7   Thumb Code    30  mal_sec.o(.text)
    mal_sec_pub_key_read                     0x00040b05   Thumb Code    58  mal_sec.o(.text)
    mal_sec_ecdh_secret                      0x00040b3f   Thumb Code    84  mal_sec.o(.text)
    mal_task_init                            0x00040c45   Thumb Code    46  mal_task.o(.text)
    mesh_tb_sec_init                         0x00040f65   Thumb Code    50  mesh_tb_sec.o(.text)
    mesh_tb_sec_get_env_size                 0x00040f97   Thumb Code     4  mesh_tb_sec.o(.text)
    mesh_tb_sec_aes_start                    0x00040f9b   Thumb Code     8  mesh_tb_sec.o(.text)
    mesh_tb_sec_cmac_start                   0x00040fa3   Thumb Code     8  mesh_tb_sec.o(.text)
    mesh_tb_sec_s1_start                     0x00040fab   Thumb Code     8  mesh_tb_sec.o(.text)
    mesh_tb_sec_k1_start                     0x00040fb3   Thumb Code     8  mesh_tb_sec.o(.text)
    mesh_tb_sec_k2_start                     0x00040fbb   Thumb Code     8  mesh_tb_sec.o(.text)
    mesh_tb_sec_k3_start                     0x00040fc3   Thumb Code     8  mesh_tb_sec.o(.text)
    mesh_tb_sec_k4_start                     0x00040fcb   Thumb Code     8  mesh_tb_sec.o(.text)
    mesh_tb_sec_rand_start                   0x00040fd3   Thumb Code     8  mesh_tb_sec.o(.text)
    mesh_tb_sec_ccm_enc_start                0x00040fdb   Thumb Code     8  mesh_tb_sec.o(.text)
    mesh_tb_sec_ccm_dec_start                0x00040fe3   Thumb Code     8  mesh_tb_sec.o(.text)
    mesh_init                                0x00041069   Thumb Code    68  mesh.o(.text)
    mesh_get_env_size                        0x000410ad   Thumb Code    52  mesh.o(.text)
    mesh_handler                             0x000410e1   Thumb Code    34  mesh.o(.text)
    m_bearer_adv_update                      0x0004121d   Thumb Code   174  m_bearer_adv.o(.text)
    m_bearer_adv_stop                        0x0004131f   Thumb Code     4  m_bearer_adv.o(.text)
    m_bearer_adv_start                       0x00041323   Thumb Code    96  m_bearer_adv.o(.text)
    m_bearer_adv_tx_prepare                  0x00041383   Thumb Code    64  m_bearer_adv.o(.text)
    m_bearer_adv_send                        0x000413c3   Thumb Code   242  m_bearer_adv.o(.text)
    m_bearer_adv_connect_api_al              0x000414b5   Thumb Code    12  m_bearer_adv.o(.text)
    m_bearer_gatt_start                      0x00041643   Thumb Code   114  m_bearer_gatt.o(.text)
    m_bearer_gatt_stop                       0x000416b5   Thumb Code    64  m_bearer_gatt.o(.text)
    m_bearer_gatt_update                     0x000416f5   Thumb Code    72  m_bearer_gatt.o(.text)
    m_bearer_gatt_tx_prepare                 0x0004173d   Thumb Code    66  m_bearer_gatt.o(.text)
    m_bearer_gatt_send                       0x0004177f   Thumb Code    84  m_bearer_gatt.o(.text)
    m_bearer_gatt_connect_api_al             0x000417d3   Thumb Code    12  m_bearer_gatt.o(.text)
    m_fnd_confs_init                         0x00042da5   Thumb Code    52  m_fnd_confs.o(.text)
    m_fnd_confs_get_env_size                 0x00042dd9   Thumb Code     4  m_fnd_confs.o(.text)
    m_lay_hb_init                            0x00043677   Thumb Code    26  m_lay_hb.o(.text)
    m_lay_hb_get_env_size                    0x00043691   Thumb Code     4  m_lay_hb.o(.text)
    m_lay_hb_connect_api_utrans              0x00043695   Thumb Code     8  m_lay_hb.o(.text)
    m_lay_ltrans_block_remain_mask           0x000436d5   Thumb Code    48  m_lay_ltrans.o(.text)
    m_lay_ltrans_init                        0x00044377   Thumb Code   172  m_lay_ltrans.o(.text)
    m_lay_ltrans_get_env_size                0x00044423   Thumb Code     4  m_lay_ltrans.o(.text)
    m_lay_ltrans_connect_api_net             0x00044427   Thumb Code     8  m_lay_ltrans.o(.text)
    m_lay_ltrans_connect_cb                  0x0004442f   Thumb Code     8  m_lay_ltrans.o(.text)
    mesh_net_tx_done_handler                 0x0004508f   Thumb Code    78  m_lay_net.o(.text)
    m_lay_net_init                           0x0004529d   Thumb Code    44  m_lay_net.o(.text)
    m_lay_net_get_env_size                   0x000452c9   Thumb Code     6  m_lay_net.o(.text)
    m_lay_net_connect_api_bearer             0x000452cf   Thumb Code     8  m_lay_net.o(.text)
    m_lay_net_connect_cb                     0x000452d7   Thumb Code    20  m_lay_net.o(.text)
    m_lay_utrans_init                        0x00045a6b   Thumb Code    36  m_lay_utrans.o(.text)
    m_lay_utrans_get_env_size                0x00045a8f   Thumb Code     4  m_lay_utrans.o(.text)
    m_lay_utrans_connect_api_ltrans          0x00045a93   Thumb Code     8  m_lay_utrans.o(.text)
    m_lay_utrans_connect_cb                  0x00045a9b   Thumb Code    24  m_lay_utrans.o(.text)
    m_prov_adv_trans_clean_up                0x00045fed   Thumb Code   204  m_prov_adv_trans.o(.text)
    m_prov_adv_trans_send                    0x000460b9   Thumb Code   144  m_prov_adv_trans.o(.text)
    m_prov_adv_trans_link_close_send         0x00046149   Thumb Code    52  m_prov_adv_trans.o(.text)
    m_prov_adv_trans_rx                      0x0004617d   Thumb Code   702  m_prov_adv_trans.o(.text)
    m_prov_adv_trans_sent                    0x0004643b   Thumb Code   228  m_prov_adv_trans.o(.text)
    aes_init                                 0x000465bd   Thumb Code    40  aes.o(.text)
    aes_alloc                                0x000465e5   Thumb Code    34  aes.o(.text)
    aes_start                                0x00046607   Thumb Code    42  aes.o(.text)
    aes_encrypt                              0x00046631   Thumb Code    24  aes.o(.text)
    aes_rand                                 0x00046649   Thumb Code   122  aes.o(.text)
    aes_result_handler                       0x000466c3   Thumb Code    80  aes.o(.text)
    aes_xor_128                              0x00046713   Thumb Code    22  aes.o(.text)
    aes_shift_left_128                       0x00046729   Thumb Code    36  aes.o(.text)
    aes_ccm                                  0x00046a29   Thumb Code   118  aes_ccm.o(.text)
    aes_cmac_continue                        0x00046b25   Thumb Code   286  aes_cmac.o(.text)
    aes_cmac_start                           0x00046c43   Thumb Code    46  aes_cmac.o(.text)
    aes_cmac                                 0x00046c71   Thumb Code    46  aes_cmac.o(.text)
    aes_k1                                   0x00046d09   Thumb Code    46  aes_k1.o(.text)
    aes_k2                                   0x00046e37   Thumb Code    66  aes_k2.o(.text)
    aes_k3                                   0x00046ec9   Thumb Code    50  aes_k3.o(.text)
    aes_k4                                   0x00046f6f   Thumb Code    50  aes_k4.o(.text)
    aes_s1                                   0x00046fcd   Thumb Code    40  aes_s1.o(.text)
    __aeabi_lmul                             0x00047024   ARM Code       0  llmul.o(.text)
    _ll_mul                                  0x00047024   ARM Code      24  llmul.o(.text)
    vsnprintf                                0x0004703d   Thumb Code    50  vsnprintf.o(.text)
    __2sprintf                               0x00047075   Thumb Code    40  __2sprintf.o(.text)
    _printf_pre_padding                      0x000470a1   Thumb Code    44  _printf_pad.o(.text)
    _printf_post_padding                     0x000470cd   Thumb Code    34  _printf_pad.o(.text)
    _printf_str                              0x000470ef   Thumb Code    82  _printf_str.o(.text)
    Inline ARM to Thumb Veneer to _printf_hex_ptr 0x00047140   ARM Code       8  _printf_hex_int_ll_ptr.o(.text)
    _printf_longlong_hex                     0x00047149   Thumb Code    88  _printf_hex_int_ll_ptr.o(.text)
    _printf_int_hex                          0x000471a1   Thumb Code    28  _printf_hex_int_ll_ptr.o(.text)
    _printf_ll_hex                           0x000471bd   Thumb Code    10  _printf_hex_int_ll_ptr.o(.text)
    _printf_hex_ptr                          0x000471c7   Thumb Code    22  _printf_hex_int_ll_ptr.o(.text)
    __printf                                 0x000471e1   Thumb Code   386  __printf_flags_ss_wp.o(.text)
    strcmp                                   0x00047368   ARM Code     240  strcmp.o(.text)
    __aeabi_uread4                           0x0004745c   ARM Code       0  uread4.o(.text)
    __rt_uread4                              0x0004745c   ARM Code      32  uread4.o(.text)
    __aeabi_uwrite4                          0x0004747c   ARM Code       0  uwrite4.o(.text)
    __rt_uwrite4                             0x0004747c   ARM Code      32  uwrite4.o(.text)
    _printf_truncate_signed                  0x0004749d   Thumb Code    22  _printf_truncate.o(.text)
    _printf_truncate_unsigned                0x000474b3   Thumb Code    22  _printf_truncate.o(.text)
    _printf_int_common                       0x000474c9   Thumb Code   176  _printf_intcommon.o(.text)
    Inline ARM to Thumb Veneer to _printf_int_dec 0x00047578   ARM Code       8  _printf_dec.o(.text)
    _printf_int_dec                          0x00047581   Thumb Code    90  _printf_dec.o(.text)
    Inline ARM to Thumb Veneer to _printf_charcount 0x000475ec   ARM Code       8  _printf_charcount.o(.text)
    _printf_charcount                        0x000475f5   Thumb Code    38  _printf_charcount.o(.text)
    _printf_char_common                      0x00047627   Thumb Code    32  _printf_char_common.o(.text)
    _sputc                                   0x0004764d   Thumb Code    10  _sputc.o(.text)
    _snputc                                  0x00047657   Thumb Code    16  _snputc.o(.text)
    Inline ARM to Thumb Veneer to _printf_char 0x00047668   ARM Code       8  _printf_char.o(.text)
    _printf_cs_common                        0x00047671   Thumb Code    22  _printf_char.o(.text)
    _printf_char                             0x00047687   Thumb Code    16  _printf_char.o(.text)
    _printf_string                           0x00047697   Thumb Code     8  _printf_char.o(.text)
    _printf_wctomb                           0x000476a1   Thumb Code   182  _printf_wctomb.o(.text)
    Inline ARM to Thumb Veneer to _printf_longlong_dec 0x0004775c   ARM Code       8  _printf_longlong_dec.o(.text)
    _printf_longlong_dec                     0x00047765   Thumb Code    94  _printf_longlong_dec.o(.text)
    Inline ARM to Thumb Veneer to _printf_int_oct 0x000477d4   ARM Code       8  _printf_oct_int_ll.o(.text)
    _printf_longlong_oct                     0x000477dd   Thumb Code    68  _printf_oct_int_ll.o(.text)
    _printf_int_oct                          0x00047821   Thumb Code    24  _printf_oct_int_ll.o(.text)
    _printf_ll_oct                           0x00047839   Thumb Code    10  _printf_oct_int_ll.o(.text)
    _ll_udiv10                               0x0004784c   ARM Code     152  lludiv10.o(.text)
    __lib_sel_fp_printf                      0x000478e5   Thumb Code     2  _printf_fp_dec.o(.text)
    _printf_fp_dec_real                      0x00047a81   Thumb Code   620  _printf_fp_dec.o(.text)
    Inline ARM to Thumb Veneer to _printf_fp_hex_real 0x00047cf8   ARM Code       8  _printf_fp_hex.o(.text)
    _printf_fp_hex_real                      0x00047d01   Thumb Code   718  _printf_fp_hex.o(.text)
    Inline ARM to Thumb Veneer to _printf_wchar 0x00047fd8   ARM Code       8  _printf_wchar.o(.text)
    _printf_lcs_common                       0x00047fe1   Thumb Code    22  _printf_wchar.o(.text)
    _printf_wchar                            0x00047ff7   Thumb Code    16  _printf_wchar.o(.text)
    _printf_wstring                          0x00048007   Thumb Code     8  _printf_wchar.o(.text)
    _wcrtomb                                 0x0004800f   Thumb Code    64  _wcrtomb.o(.text)
    __rt_udiv10                              0x00048050   ARM Code      44  rtudiv10.o(.text)
    __user_setup_stackheap                   0x0004807c   ARM Code      96  sys_stackheap_outer.o(.text)
    __rt_ctype_table                         0x000480dc   ARM Code      20  rt_ctype_table.o(.text)
    __rt_locale                              0x000480f0   ARM Code      12  rt_locale_intlibspace.o(.text)
    _printf_fp_infnan                        0x000480fd   Thumb Code   120  _printf_fp_infnan.o(.text)
    _btod_etento                             0x00048185   Thumb Code   210  bigflt0.o(.text)
    exit                                     0x0004825d   Thumb Code    16  exit.o(.text)
    __user_libspace                          0x0004826c   ARM Code      12  libspace.o(.text)
    __user_perproc_libspace                  0x0004826c   ARM Code       0  libspace.o(.text)
    __user_perthread_libspace                0x0004826c   ARM Code       0  libspace.o(.text)
    _sys_exit                                0x00048279   Thumb Code     8  sys_exit.o(.text)
    __I$use$semihosting                      0x00048284   ARM Code       0  use_no_semi.o(.text)
    __use_no_semihosting_swi                 0x00048284   ARM Code       4  use_no_semi.o(.text)
    __semihosting_library_function           0x00048288   ARM Code       0  indicate_semi.o(.text)
    _btod_d2e                                0x00048288   ARM Code      56  btod.o(CL$$btod_d2e)
    _d2e_denorm_low                          0x000482c0   ARM Code      84  btod.o(CL$$btod_d2e_denorm_low)
    _d2e_norm_op1                            0x00048314   ARM Code     104  btod.o(CL$$btod_d2e_norm_op1)
    __btod_div_common                        0x0004837c   ARM Code     712  btod.o(CL$$btod_div_common)
    _e2e                                     0x000486c4   ARM Code     244  btod.o(CL$$btod_e2e)
    _btod_ediv                               0x000487b8   ARM Code      52  btod.o(CL$$btod_ediv)
    _btod_emul                               0x000487ec   ARM Code      52  btod.o(CL$$btod_emul)
    __btod_mult_common                       0x00048820   ARM Code     612  btod.o(CL$$btod_mult_common)
    Long ARM to Thumb Veneer to _printf_int_hex 0x00048a84   ARM Code       8  anon$$obj.o(Veneer$$Code)
    Long ARM to Thumb Veneer to _printf_ll_oct 0x00048a8c   ARM Code       8  anon$$obj.o(Veneer$$Code)
    Long ARM to Thumb Veneer to _printf_ll_hex 0x00048a94   ARM Code       8  anon$$obj.o(Veneer$$Code)
    Long ARM to Thumb Veneer to _printf_string 0x00048a9c   ARM Code       8  anon$$obj.o(Veneer$$Code)
    Long ARM to Thumb Veneer to _printf_wstring 0x00048aa4   ARM Code       8  anon$$obj.o(Veneer$$Code)
    Long ARM to Thumb Veneer to _printf_fp_dec_real 0x00048aac   ARM Code       8  anon$$obj.o(Veneer$$Code)
    __ARM_common_ctz                         0x00048ab5   Thumb Code    58  m_bcn.o(i.__ARM_common_ctz)
    __ARM_fpclassify                         0x00048af0   ARM Code      44  fpclassify.o(i.__ARM_fpclassify)
    _is_digit                                0x00048b21   Thumb Code    14  __printf_wp.o(i._is_digit)
    ceil                                     0x00048b30   ARM Code     280  ceil.o(i.ceil)
    round                                    0x00048c5c   ARM Code     216  round.o(i.round)
    _get_lc_numeric                          0x00048d38   ARM Code      72  lc_numeric_c.o(locale$$code)
    _get_lc_ctype                            0x00048d80   ARM Code      72  lc_ctype_c.o(locale$$code)
    __aeabi_d2f                              0x00048dc8   ARM Code       0  d2f.o(x$fpl$d2f)
    _d2f                                     0x00048dc8   ARM Code     108  d2f.o(x$fpl$d2f)
    __aeabi_dadd                             0x00048e34   ARM Code       0  daddsub_clz.o(x$fpl$dadd)
    _dadd                                    0x00048e34   ARM Code     336  daddsub_clz.o(x$fpl$dadd)
    __fpl_dcheck_NaN1                        0x00048f88   ARM Code      12  dcheck1.o(x$fpl$dcheck1)
    __fpl_dcmp_Inf                           0x00048f98   ARM Code      28  dcmpi.o(x$fpl$dcmpinf)
    __aeabi_ddiv                             0x00048fb4   ARM Code       0  ddiv.o(x$fpl$ddiv)
    _ddiv                                    0x00048fb4   ARM Code     584  ddiv.o(x$fpl$ddiv)
    __aeabi_d2uiz                            0x00049284   ARM Code       0  dfixu.o(x$fpl$dfixu)
    _dfixu                                   0x00049284   ARM Code     112  dfixu.o(x$fpl$dfixu)
    __aeabi_i2d                              0x000492f4   ARM Code       0  dflt_clz.o(x$fpl$dflt)
    _dflt                                    0x000492f4   ARM Code      52  dflt_clz.o(x$fpl$dflt)
    __aeabi_ui2d                             0x00049328   ARM Code       0  dflt_clz.o(x$fpl$dfltu)
    _dfltu                                   0x00049328   ARM Code      44  dflt_clz.o(x$fpl$dfltu)
    __aeabi_cdcmple                          0x00049354   ARM Code       0  dleqf.o(x$fpl$dleqf)
    _dcmple                                  0x00049354   ARM Code     148  dleqf.o(x$fpl$dleqf)
    __fpl_dcmple_InfNaN                      0x000493d0   ARM Code       0  dleqf.o(x$fpl$dleqf)
    __aeabi_dmul                             0x000493e8   ARM Code       0  dmul.o(x$fpl$dmul)
    _dmul                                    0x000493e8   ARM Code     364  dmul.o(x$fpl$dmul)
    __fpl_dnaninf                            0x00049560   ARM Code     184  dnaninf.o(x$fpl$dnaninf)
    __fpl_dretinf                            0x00049618   ARM Code      16  dretinf.o(x$fpl$dretinf)
    __aeabi_cdrcmple                         0x00049628   ARM Code       0  drleqf.o(x$fpl$drleqf)
    _drcmple                                 0x00049628   ARM Code     140  drleqf.o(x$fpl$drleqf)
    _drnd                                    0x000496b4   ARM Code     192  drnd.o(x$fpl$drnd)
    __aeabi_drsub                            0x00049774   ARM Code       0  daddsub_clz.o(x$fpl$drsb)
    _drsb                                    0x00049774   ARM Code      24  daddsub_clz.o(x$fpl$drsb)
    __aeabi_dsub                             0x0004978c   ARM Code       0  daddsub_clz.o(x$fpl$dsub)
    _dsub                                    0x0004978c   ARM Code     508  daddsub_clz.o(x$fpl$dsub)
    __aeabi_f2d                              0x0004998c   ARM Code       0  f2d.o(x$fpl$f2d)
    _f2d                                     0x0004998c   ARM Code     100  f2d.o(x$fpl$f2d)
    __aeabi_fadd                             0x000499f0   ARM Code       0  faddsub_clz.o(x$fpl$fadd)
    _fadd                                    0x000499f0   ARM Code     196  faddsub_clz.o(x$fpl$fadd)
    __fpl_fcheck_NaN1                        0x00049ab4   ARM Code       8  fcheck1.o(x$fpl$fcheck1)
    __aeabi_fdiv                             0x00049ac0   ARM Code       0  fdiv.o(x$fpl$fdiv)
    _fdiv                                    0x00049ac0   ARM Code     396  fdiv.o(x$fpl$fdiv)
    __aeabi_ui2f                             0x00049c50   ARM Code       0  fflt_clz.o(x$fpl$ffltu)
    _ffltu                                   0x00049c50   ARM Code      40  fflt_clz.o(x$fpl$ffltu)
    __aeabi_fmul                             0x00049c78   ARM Code       0  fmul.o(x$fpl$fmul)
    _fmul                                    0x00049c78   ARM Code     256  fmul.o(x$fpl$fmul)
    __fpl_fnaninf                            0x00049d78   ARM Code     160  fnaninf.o(x$fpl$fnaninf)
    __fpl_fretinf                            0x00049e18   ARM Code      16  fretinf.o(x$fpl$fretinf)
    __aeabi_frsub                            0x00049e28   ARM Code       0  faddsub_clz.o(x$fpl$frsb)
    _frsb                                    0x00049e28   ARM Code      20  faddsub_clz.o(x$fpl$frsb)
    __aeabi_fsub                             0x00049e3c   ARM Code       0  faddsub_clz.o(x$fpl$fsub)
    _fsub                                    0x00049e3c   ARM Code     256  faddsub_clz.o(x$fpl$fsub)
    __ieee_status                            0x00049f3c   ARM Code       8  istatus.o(x$fpl$ieeestatus)
    _printf_fp_dec                           0x00049f44   ARM Code       4  printf1.o(x$fpl$printf1)
    _printf_fp_hex                           0x00049f48   ARM Code       4  printf2.o(x$fpl$printf2)
    __fpl_return_NaN                         0x00049f4c   ARM Code     116  retnan.o(x$fpl$retnan)
    __ARM_scalbn                             0x00049fc0   ARM Code     104  scalbn.o(x$fpl$scalbn)
    __ARM_scalbnf                            0x0004a028   ARM Code      92  scalbnf.o(x$fpl$scalbnf)
    __fpl_cmpreturn                          0x0004a084   ARM Code      60  trapv.o(x$fpl$trapveneer)
    __I$use$fp                               0x0004a0c0   Number         0  usenofp.o(x$fpl$usenofp)
    bas_att_db                               0x0004a100   Data          40  bass.o(.constdata)
    bass_itf                                 0x0004a128   Data          16  bass.o(.constdata)
    bass_default_state                       0x0004a138   Data          48  bass_task.o(.constdata)
    bass_default_handler                     0x0004a168   Data           8  bass_task.o(.constdata)
    diss_att_db                              0x0004a170   Data         152  diss.o(.constdata)
    diss_itf                                 0x0004a208   Data          16  diss.o(.constdata)
    diss_default_state                       0x0004a218   Data          24  diss_task.o(.constdata)
    diss_default_handler                     0x0004a230   Data           8  diss_task.o(.constdata)
    fff0_att_db                              0x0004a238   Data          48  fff0s.o(.constdata)
    fff0s_itf                                0x0004a268   Data          16  fff0s.o(.constdata)
    fff0s_default_state                      0x0004a278   Data          40  fff0s_task.o(.constdata)
    fff0s_default_handler                    0x0004a2a0   Data           8  fff0s_task.o(.constdata)
    oads_att_db                              0x0004a2a8   Data          72  oads.o(.constdata)
    oads_itf                                 0x0004a2f0   Data          16  oads.o(.constdata)
    oads_default_state                       0x0004a328   Data          48  oads_task.o(.constdata)
    braces_default_handler                   0x0004a358   Data           8  oads_task.o(.constdata)
    appm_default_state                       0x0004a3bc   Data         136  app_task.o(.constdata)
    appm_default_handler                     0x0004a444   Data           8  app_task.o(.constdata)
    app_mesh_msg_handler_list                0x0004a504   Data          80  app_mesh.o(.constdata)
    app_mesh_table_handler                   0x0004a554   Data           8  app_mesh.o(.constdata)
    app_batt_msg_handler_list                0x0004a5f0   Data          32  app_batt.o(.constdata)
    app_batt_table_handler                   0x0004a610   Data           8  app_batt.o(.constdata)
    app_dis_msg_handler_list                 0x0004a618   Data           8  app_dis.o(.constdata)
    app_dis_table_handler                    0x0004a620   Data           8  app_dis.o(.constdata)
    app_fff0_msg_handler_list                0x0004a628   Data          40  app_fff0.o(.constdata)
    app_fff0_table_handler                   0x0004a650   Data           8  app_fff0.o(.constdata)
    app_oads_msg_handler_list                0x0004a674   Data          48  app_oads.o(.constdata)
    app_oads_table_handler                   0x0004a6a4   Data           8  app_oads.o(.constdata)
    m_fnd_blob_cb                            0x0004ac04   Data          16  m_fnd_blob_transfer.o(.constdata)
    m_fnd_fw_update_cb                       0x0004ac14   Data          16  m_fnd_fw_update.o(.constdata)
    m_fnd_scenes_cb                          0x0004ac24   Data          16  m_fnd_scenes.o(.constdata)
    gmas_att_db                              0x0004d064   Data         104  ais.o(.constdata)
    gmas_itf                                 0x0004d0cc   Data          16  ais.o(.constdata)
    gmas_default_state                       0x0004d0dc   Data          40  ais_task.o(.constdata)
    gmas_default_handler                     0x0004d104   Data           8  ais_task.o(.constdata)
    app_gmas_msg_handler_list                0x0004d10c   Data          16  app_ais.o(.constdata)
    app_gmas_table_handler                   0x0004d11c   Data           8  app_ais.o(.constdata)
    m_bcn_cb                                 0x0004d304   Data          16  m_bcn.o(.constdata)
    m_bearer_api                             0x0004d368   Data           8  m_bearer.o(.constdata)
    m_fnd_hlths_cb                           0x0004d3c4   Data          16  m_fnd_hlths.o(.constdata)
    m_lay_access_cb                          0x0004d440   Data           8  m_lay_access.o(.constdata)
    m_lay_proxy_cb_net                       0x0004d4c4   Data          16  m_lay_proxy.o(.constdata)
    m_prov_bearer_cb                         0x0004d858   Data          16  m_prov_bearer.o(.constdata)
    mm_route_cb                              0x0004db68   Data          16  mm_route.o(.constdata)
    mal_adv_api                              0x0004dbf4   Data          12  mal_adv.o(.constdata)
    mal_con_api                              0x0004dc60   Data          16  mal_con.o(.constdata)
    m_fnd_confs_cb                           0x0004ddb4   Data          16  m_fnd_confs.o(.constdata)
    m_lay_hb_cb                              0x0004e218   Data           8  m_lay_hb.o(.constdata)
    m_lay_hb_state_cb                        0x0004e220   Data           4  m_lay_hb.o(.constdata)
    m_lay_ltrans_api                         0x0004e234   Data           4  m_lay_ltrans.o(.constdata)
    m_lay_ltrans_cb                          0x0004e238   Data          16  m_lay_ltrans.o(.constdata)
    m_lay_net_api                            0x0004e2a4   Data           4  m_lay_net.o(.constdata)
    m_lay_net_cb                             0x0004e2a8   Data          16  m_lay_net.o(.constdata)
    m_lay_utrans_api                         0x0004e3c4   Data           4  m_lay_utrans.o(.constdata)
    m_lay_utrans_cb                          0x0004e3c8   Data           8  m_lay_utrans.o(.constdata)
    aes_cmac_zero                            0x0004e60e   Data          16  aes_cmac.o(.constdata)
    aes_k2_salt                              0x0004e627   Data          16  aes_k2.o(.constdata)
    aes_k3_id64                              0x0004e637   Data           5  aes_k3.o(.constdata)
    aes_k3_salt                              0x0004e643   Data          16  aes_k3.o(.constdata)
    aes_k4_id6                               0x0004e653   Data           4  aes_k4.o(.constdata)
    aes_k4_salt                              0x0004e65e   Data          16  aes_k4.o(.constdata)
    Region$$Table$$Base                      0x0004f5e0   Number         0  anon$$obj.o(Region$$Table)
    Region$$Table$$Limit                     0x0004f600   Number         0  anon$$obj.o(Region$$Table)
    __ctype                                  0x0004f629   Data           0  lc_ctype_c.o(locale$$data)
    Load$$RAM_DATA$$Base                     0x0004f72c   Number         0  anon$$obj.o ABSOLUTE
    dbg_state                                0x00400028   Data           0  stack_rom_symbol.txt ABSOLUTE
    co_default_bdaddr                        0x00400029   Data           0  stack_rom_symbol.txt ABSOLUTE
    llc_state                                0x0040002f   Data           0  stack_rom_symbol.txt ABSOLUTE
    latency_disable_state                    0x00400037   Data           0  stack_rom_symbol.txt ABSOLUTE
    system_sleep_flag                        0x00400038   Data           0  stack_rom_symbol.txt ABSOLUTE
    lld_sleep_env                            0x0040003c   Data           0  stack_rom_symbol.txt ABSOLUTE
    system_mode                              0x00400040   Data           0  stack_rom_symbol.txt ABSOLUTE
    llm_state                                0x00400041   Data           0  stack_rom_symbol.txt ABSOLUTE
    gapm_state                               0x0040004c   Data           0  stack_rom_symbol.txt ABSOLUTE
    gapc_state                               0x0040004d   Data           0  stack_rom_symbol.txt ABSOLUTE
    gattc_state                              0x00400055   Data           0  stack_rom_symbol.txt ABSOLUTE
    gattm_state                              0x0040005d   Data           0  stack_rom_symbol.txt ABSOLUTE
    l2cc_state                               0x0040005e   Data           0  stack_rom_symbol.txt ABSOLUTE
    ke_env                                   0x0040006c   Data           0  stack_rom_symbol.txt ABSOLUTE
    sw_to_hw                                 0x004001c4   Data           0  stack_rom_symbol.txt ABSOLUTE
    rwip_rf                                  0x00400208   Data           0  stack_rom_symbol.txt ABSOLUTE
    rom_env                                  0x0040023c   Data           0  stack_rom_symbol.txt ABSOLUTE
    em_buf_env                               0x00400290   Data           0  stack_rom_symbol.txt ABSOLUTE
    llc_env                                  0x00400744   Data           0  stack_rom_symbol.txt ABSOLUTE
    lld_evt_env                              0x00400764   Data           0  stack_rom_symbol.txt ABSOLUTE
    llm_le_env                               0x004007cc   Data           0  stack_rom_symbol.txt ABSOLUTE
    gapm_env                                 0x004008e8   Data           0  stack_rom_symbol.txt ABSOLUTE
    gapc_env                                 0x00400974   Data           0  stack_rom_symbol.txt ABSOLUTE
    gattc_env                                0x00400994   Data           0  stack_rom_symbol.txt ABSOLUTE
    gattm_env                                0x004009b4   Data           0  stack_rom_symbol.txt ABSOLUTE
    l2cc_env                                 0x004009d4   Data           0  stack_rom_symbol.txt ABSOLUTE
    l2cm_env                                 0x004009f4   Data           0  stack_rom_symbol.txt ABSOLUTE
    hci_env                                  0x00400a00   Data           0  stack_rom_symbol.txt ABSOLUTE
    hci_fc_env                               0x00400a10   Data           0  stack_rom_symbol.txt ABSOLUTE
    Image$$RAM_DATA$$Base                    0x00400c00   Number         0  anon$$obj.o ABSOLUTE
    loop                                     0x00400c00   Data           4  arch_main_1.o(.data)
    loop1                                    0x00400c04   Data           4  arch_main_1.o(.data)
    uart_rx_done                             0x00400c0c   Data           1  uart.o(.data)
    cur_read_buf_idx                         0x00400c0d   Data           1  uart.o(.data)
    uart_dut_reg_flag                        0x00400c0e   Data           1  uart.o(.data)
    pbuff_write                              0x00400c10   Data           2  uart.o(.data)
    pbuff_read                               0x00400c12   Data           2  uart.o(.data)
    uart_write_index                         0x00400c18   Data           4  uart.o(.data)
    ph4tl_env                                0x00400c20   Data           4  uart.o(.data)
    flash_enable_write_flag1                 0x00400c24   Data           1  flash.o(.data)
    flash_enable_write_flag2                 0x00400c25   Data           1  flash.o(.data)
    flash_mid                                0x00400c28   Data           4  flash.o(.data)
    wdt_disable_flag                         0x00400c2c   Data           1  wdt.o(.data)
    GPIO_CFG                                 0x00400c34   Data          20  gpio.o(.data)
    GPIO_DATA                                0x00400c48   Data          20  gpio.o(.data)
    oad_firmware_type                        0x00400c5d   Data           1  oads.o(.data)
    appm_state                               0x00400c65   Data           1  app_task.o(.data)
    app_batt_env                             0x00400c74   Data           2  app_batt.o(.data)
    app_fff0_env                             0x00400c76   Data           2  app_fff0.o(.data)
    app_oads_env                             0x00400c78   Data           1  app_oads.o(.data)
    g_vdr_lid                                0x00400c7e   Data           1  app_light_ali_server.o(.data)
    g_ln_mdl_lid                             0x00400c7f   Data           1  app_light_ali_server.o(.data)
    g_ctl_ln_mdl_lid                         0x00400c80   Data           1  app_light_ali_server.o(.data)
    g_ctl_mdl_lid                            0x00400c81   Data           1  app_light_ali_server.o(.data)
    g_ctlt_mdl_lid                           0x00400c82   Data           1  app_light_ali_server.o(.data)
    g_oo_mdl_lid                             0x00400c83   Data           1  app_light_ali_server.o(.data)
    g_hsl_mdl_lid                            0x00400c86   Data           1  app_light_ali_server.o(.data)
    light_mode                               0x00400c88   Data           1  led.o(.data)
    light_state                              0x00400c89   Data           1  led.o(.data)
    led_timer_status                         0x00400c8a   Data           1  led.o(.data)
    ctl_temperature                          0x00400c8c   Data           2  led.o(.data)
    ctl_delta_uv                             0x00400c8e   Data           2  led.o(.data)
    quick_onoff_count                        0x00400c90   Data           2  led.o(.data)
    light_lightness                          0x00400c92   Data           2  led.o(.data)
    ctl_lightness                            0x00400c94   Data           2  led.o(.data)
    hsl_lightness                            0x00400c96   Data           2  led.o(.data)
    hsl_hue                                  0x00400c98   Data           2  led.o(.data)
    hsl_saturation                           0x00400c9a   Data           2  led.o(.data)
    pwm_move_step                            0x00400ca0   Data           4  led.o(.data)
    min_move_step_num                        0x00400ca4   Data           4  led.o(.data)
    light_cwrgb                              0x00400ca8   Data          10  led.o(.data)
    p_m_api_cb                               0x00400cb4   Data           4  m_api.o(.data)
    p_m_api_fault_cb                         0x00400cb8   Data           4  m_api.o(.data)
    p_mesh_api_cb                            0x00400cbc   Data           4  mesh_api.o(.data)
    p_mm_api_cb                              0x00400cc0   Data           4  mm_api.o(.data)
    oad_calcuCrc                             0x00400cc8   Data           4  m_fnd_fw_update.o(.data)
    gma_conidx                               0x00400cd6   Data           1  ais_task.o(.data)
    calccrc1                                 0x00400cd8   Data           2  gma.o(.data)
    gma_raw_data_len                         0x00400cda   Data           2  gma.o(.data)
    iv_temp                                  0x00400cdc   Data          16  gma.o(.data)
    ali_para                                 0x00400cec   Data          26  gma.o(.data)
    adv_gma_data                             0x00400d06   Data          25  gma.o(.data)
    p_APB_XVER_ADDR                          0x00400d24   Data           4  rf_pn9_test.o(.data)
    tx_rsp_buffer                            0x00400d28   Data           7  rf_pn9_test.o(.data)
    rx_rsp_buffer                            0x00400d2f   Data           7  rf_pn9_test.o(.data)
    error_cmd_rsp                            0x00400d36   Data           7  rf_pn9_test.o(.data)
    test_end_rsp_buffer                      0x00400d3d   Data           9  rf_pn9_test.o(.data)
    is_evt_end_isr                           0x00400d46   Data           1  lld_adv_test.o(.data)
    lld_scan_act_id                          0x00400d47   Data           1  lld_adv_test.o(.data)
    lld_scan_win_size                        0x00400d48   Data           1  lld_adv_test.o(.data)
    p_mal_env                                0x00400d4c   Data           4  mal.o(.data)
    p_m_bearer_env                           0x00400d5c   Data           4  m_bearer.o(.data)
    p_m_lay_proxy_env                        0x00400d68   Data           4  m_lay_proxy.o(.data)
    link_open_dis                            0x00400d6c   Data           1  m_prov.o(.data)
    p_m_prov_env                             0x00400d70   Data           4  m_prov.o(.data)
    trans_count                              0x00400db8   Data           1  m_prov_adv_trans.o(.data)
    Image$$RAM_BSS$$Base                     0x00400dbc   Number         0  anon$$obj.o ABSOLUTE
    uart_api                                 0x00400dbc   Data          16  arch_main_1.o(.bss)
    rwip_heap_env                            0x00400e60   Data         924  rwip.o(.bss)
    rwip_heap_db                             0x004011fc   Data       20492  rwip.o(.bss)
    rwip_heap_msg                            0x00406208   Data        6892  rwip.o(.bss)
    rwip_heap_non_ret                        0x00407cf4   Data         524  rwip.o(.bss)
    uart_rx_buf                              0x00407f00   Data         256  uart.o(.bss)
    uart_env                                 0x00408000   Data          44  uart.o(.bss)
    uart_buff                                0x0040802c   Data         256  uart.o(.bss)
    temp_buf                                 0x0040812c   Data         256  uart.o(.bss)
    flash_env                                0x0040822c   Data          12  flash.o(.bss)
    XVR_ANALOG_REG_BAK                       0x00408238   Data          64  rf_xvr.o(.bss)
    GPIO_CFG_BACKUP                          0x00408278   Data          20  gpio.o(.bss)
    GPIO_DATA_BACKUP                         0x0040828c   Data          20  gpio.o(.bss)
    bsec                                     0x004082b4   Data         192  oads.o(.bss)
    prf_env                                  0x00408374   Data         240  prf.o(.bss)
    app_env                                  0x00408464   Data          40  app.o(.bss)
    app_mesh_env                             0x0040848c   Data          28  app_mesh.o(.bss)
    crc32_table                              0x004084a8   Data        1024  oad_common.o(.bss)
    hdr_back                                 0x004088a8   Data          16  oad_common.o(.bss)
    quick_onoff_timer                        0x004088b8   Data          24  app_light_ali_server.o(.bss)
    light_state_store_timer                  0x004088d0   Data          24  app_light_ali_server.o(.bss)
    light_prov_timer                         0x004088e8   Data          24  app_light_ali_server.o(.bss)
    light_unbind_timer                       0x00408900   Data          24  app_light_ali_server.o(.bss)
    light_prov_timeout_timer                 0x00408918   Data          24  app_light_ali_server.o(.bss)
    ali_light_report                         0x00408930   Data          32  app_light_ali_server.o(.bss)
    pwm1                                     0x00408970   Data          16  led.o(.bss)
    pwm2                                     0x00408980   Data          16  led.o(.bss)
    pwm3                                     0x00408990   Data          16  led.o(.bss)
    pwm4                                     0x004089a0   Data          16  led.o(.bss)
    pwm5                                     0x004089b0   Data          16  led.o(.bss)
    pwm6                                     0x004089c0   Data          16  led.o(.bss)
    m_stack_param                            0x004089d0   Data          48  mesh_param_int.o(.bss)
    crc_buf                                  0x00408a1b   Data        4096  m_fnd_blob_transfer.o(.bss)
    gma_raw_data                             0x00409a38   Data         200  gma.o(.bss)
    ali_aes_ctx                              0x00409b00   Data         260  gma.o(.bss)
    gma_para_proc                            0x00409c04   Data          55  gma.o(.bss)
    lld_adv_test_env                         0x00409e50   Data         464  lld_adv_test.o(.bss)
    aes_env                                  0x0040a020   Data          24  aes.o(.bss)
    __libspace_start                         0x0040a038   Data          96  libspace.o(.bss)
    __temporary_stack_top$libspace           0x0040a098   Data           0  libspace.o(.bss)
    Image$$RAM_STACK_UNUSED$$Base            0x0040a4fc   Number         0  anon$$obj.o ABSOLUTE
    Image$$RAM_STACK_FIQ$$Base               0x0040a5fc   Number         0  anon$$obj.o ABSOLUTE
    Image$$RAM_STACK_IRQ$$Base               0x0040aafc   Number         0  anon$$obj.o ABSOLUTE
    Image$$RAM_STACK_SVC$$Base               0x0040affc   Number         0  anon$$obj.o ABSOLUTE



==============================================================================

Memory Map of the image

  Image Entry point : 0x00023e84

  Load Region SECTIONS (Base: 0x00023e00, Size: 0x0002bae8, Max: 0xffffffff, ABSOLUTE, COMPRESSED[0x0002b9c0])

    Execution Region ROM_SYS (Exec base: 0x00023e00, Load base: 0x00023e00, Size: 0x00000284, Max: 0xffffffff, ABSOLUTE)

    Exec Addr    Load Addr    Size         Type   Attr      Idx    E Section Name        Object

    0x00023e00   0x00023e00   0x0000005c   Code   RO          418  * SYS_BOOT            boot_vectors.o
    0x00023e5c   0x00023e5c   0x00000200   Code   RO          413  * SYS_BOOT            boot_handlers.o
    0x0002405c   0x0002405c   0x00000008   Ven    RO         3060    Veneer$$Code        anon$$obj.o
    0x00024064   0x00024064   0x00000008   Ven    RO         3061    Veneer$$Code        anon$$obj.o
    0x0002406c   0x0002406c   0x00000008   Ven    RO         3062    Veneer$$Code        anon$$obj.o
    0x00024074   0x00024074   0x00000008   Ven    RO         3063    Veneer$$Code        anon$$obj.o
    0x0002407c   0x0002407c   0x00000008   Ven    RO         3064    Veneer$$Code        anon$$obj.o


    Execution Region FAST_CALL_SEG (Exec base: 0x00024100, Load base: 0x00024100, Size: 0x00000030, Max: 0xffffffff, ABSOLUTE, FIXED)

    Exec Addr    Load Addr    Size         Type   Attr      Idx    E Section Name        Object

    0x00024100   0x00024100   0x00000010   Code   RO          708    sys_fiq_entry       intc.o
    0x00024110   0x00024110   0x00000010   PAD
    0x00024120   0x00024120   0x00000010   Code   RO          709    sys_irq_entry       intc.o


    Execution Region ROM (Exec base: 0x00024130, Load base: 0x00024130, Size: 0x0002b5fc, Max: 0xffffffff, ABSOLUTE)

    Exec Addr    Load Addr    Size         Type   Attr      Idx    E Section Name        Object

    0x00024130   0x00024130   0x00000008   Code   RO         2695  * !!!main             c_5.l(__main.o)
    0x00024138   0x00024138   0x0000003c   Code   RO         3048    !!!scatter          c_5.l(__scatter.o)
    0x00024174   0x00024174   0x0000005c   Code   RO         3046    !!dczerorl2         c_5.l(__dczerorl2.o)
    0x000241d0   0x000241d0   0x0000002c   Code   RO         3050    !!handler_zi        c_5.l(__scatter_zi.o)
    0x000241fc   0x000241fc   0x00000000   Code   RO         2680    .ARM.Collect$$_printf_percent$$00000000  c_5.l(_printf_percent.o)
    0x000241fc   0x000241fc   0x00000008   Code   RO         2780    .ARM.Collect$$_printf_percent$$00000001  c_5.l(_printf_n.o)
    0x00024204   0x00024204   0x00000008   Code   RO         2781    .ARM.Collect$$_printf_percent$$00000002  c_5.l(_printf_p.o)
    0x0002420c   0x0002420c   0x00000008   Code   RO         2786    .ARM.Collect$$_printf_percent$$00000003  c_5.l(_printf_f.o)
    0x00024214   0x00024214   0x00000008   Code   RO         2787    .ARM.Collect$$_printf_percent$$00000004  c_5.l(_printf_e.o)
    0x0002421c   0x0002421c   0x00000008   Code   RO         2788    .ARM.Collect$$_printf_percent$$00000005  c_5.l(_printf_g.o)
    0x00024224   0x00024224   0x00000008   Code   RO         2789    .ARM.Collect$$_printf_percent$$00000006  c_5.l(_printf_a.o)
    0x0002422c   0x0002422c   0x0000000c   Code   RO         2794    .ARM.Collect$$_printf_percent$$00000007  c_5.l(_printf_ll.o)
    0x00024238   0x00024238   0x00000008   Code   RO         2783    .ARM.Collect$$_printf_percent$$00000008  c_5.l(_printf_i.o)
    0x00024240   0x00024240   0x00000008   Code   RO         2784    .ARM.Collect$$_printf_percent$$00000009  c_5.l(_printf_d.o)
    0x00024248   0x00024248   0x00000008   Code   RO         2785    .ARM.Collect$$_printf_percent$$0000000A  c_5.l(_printf_u.o)
    0x00024250   0x00024250   0x00000008   Code   RO         2782    .ARM.Collect$$_printf_percent$$0000000B  c_5.l(_printf_o.o)
    0x00024258   0x00024258   0x00000008   Code   RO         2679    .ARM.Collect$$_printf_percent$$0000000C  c_5.l(_printf_x.o)
    0x00024260   0x00024260   0x00000008   Code   RO         2791    .ARM.Collect$$_printf_percent$$0000000D  c_5.l(_printf_lli.o)
    0x00024268   0x00024268   0x00000008   Code   RO         2792    .ARM.Collect$$_printf_percent$$0000000E  c_5.l(_printf_lld.o)
    0x00024270   0x00024270   0x00000008   Code   RO         2793    .ARM.Collect$$_printf_percent$$0000000F  c_5.l(_printf_llu.o)
    0x00024278   0x00024278   0x00000008   Code   RO         2798    .ARM.Collect$$_printf_percent$$00000010  c_5.l(_printf_llo.o)
    0x00024280   0x00024280   0x00000008   Code   RO         2799    .ARM.Collect$$_printf_percent$$00000011  c_5.l(_printf_llx.o)
    0x00024288   0x00024288   0x0000000c   Code   RO         2795    .ARM.Collect$$_printf_percent$$00000012  c_5.l(_printf_l.o)
    0x00024294   0x00024294   0x00000008   Code   RO         2779    .ARM.Collect$$_printf_percent$$00000013  c_5.l(_printf_c.o)
    0x0002429c   0x0002429c   0x00000008   Code   RO         2678    .ARM.Collect$$_printf_percent$$00000014  c_5.l(_printf_s.o)
    0x000242a4   0x000242a4   0x00000008   Code   RO         2796    .ARM.Collect$$_printf_percent$$00000015  c_5.l(_printf_lc.o)
    0x000242ac   0x000242ac   0x00000008   Code   RO         2797    .ARM.Collect$$_printf_percent$$00000016  c_5.l(_printf_ls.o)
    0x000242b4   0x000242b4   0x00000008   Code   RO         2790    .ARM.Collect$$_printf_percent$$00000017  c_5.l(_printf_percent_end.o)
    0x000242bc   0x000242bc   0x00000002   Code   RO         2907    .ARM.Collect$$libinit$$00000000  c_5.l(libinit.o)
    0x000242be   0x000242be   0x00000000   Code   RO         2923    .ARM.Collect$$libinit$$00000002  c_5.l(libinit2.o)
    0x000242be   0x000242be   0x00000000   Code   RO         2925    .ARM.Collect$$libinit$$00000004  c_5.l(libinit2.o)
    0x000242be   0x000242be   0x00000000   Code   RO         2928    .ARM.Collect$$libinit$$0000000A  c_5.l(libinit2.o)
    0x000242be   0x000242be   0x00000000   Code   RO         2930    .ARM.Collect$$libinit$$0000000C  c_5.l(libinit2.o)
    0x000242be   0x000242be   0x00000000   Code   RO         2932    .ARM.Collect$$libinit$$0000000E  c_5.l(libinit2.o)
    0x000242be   0x000242be   0x00000006   Code   RO         2933    .ARM.Collect$$libinit$$0000000F  c_5.l(libinit2.o)
    0x000242c4   0x000242c4   0x00000000   Code   RO         2935    .ARM.Collect$$libinit$$00000011  c_5.l(libinit2.o)
    0x000242c4   0x000242c4   0x0000000c   Code   RO         2936    .ARM.Collect$$libinit$$00000012  c_5.l(libinit2.o)
    0x000242d0   0x000242d0   0x00000000   Code   RO         2937    .ARM.Collect$$libinit$$00000013  c_5.l(libinit2.o)
    0x000242d0   0x000242d0   0x00000000   Code   RO         2939    .ARM.Collect$$libinit$$00000015  c_5.l(libinit2.o)
    0x000242d0   0x000242d0   0x0000000a   Code   RO         2940    .ARM.Collect$$libinit$$00000016  c_5.l(libinit2.o)
    0x000242da   0x000242da   0x00000000   Code   RO         2941    .ARM.Collect$$libinit$$00000017  c_5.l(libinit2.o)
    0x000242da   0x000242da   0x00000000   Code   RO         2943    .ARM.Collect$$libinit$$00000019  c_5.l(libinit2.o)
    0x000242da   0x000242da   0x00000000   Code   RO         2945    .ARM.Collect$$libinit$$0000001B  c_5.l(libinit2.o)
    0x000242da   0x000242da   0x00000000   Code   RO         2947    .ARM.Collect$$libinit$$0000001D  c_5.l(libinit2.o)
    0x000242da   0x000242da   0x00000000   Code   RO         2949    .ARM.Collect$$libinit$$0000001F  c_5.l(libinit2.o)
    0x000242da   0x000242da   0x00000000   Code   RO         2951    .ARM.Collect$$libinit$$00000021  c_5.l(libinit2.o)
    0x000242da   0x000242da   0x00000000   Code   RO         2953    .ARM.Collect$$libinit$$00000023  c_5.l(libinit2.o)
    0x000242da   0x000242da   0x00000000   Code   RO         2955    .ARM.Collect$$libinit$$00000025  c_5.l(libinit2.o)
    0x000242da   0x000242da   0x00000000   Code   RO         2959    .ARM.Collect$$libinit$$0000002C  c_5.l(libinit2.o)
    0x000242da   0x000242da   0x00000000   Code   RO         2961    .ARM.Collect$$libinit$$0000002E  c_5.l(libinit2.o)
    0x000242da   0x000242da   0x00000000   Code   RO         2963    .ARM.Collect$$libinit$$00000030  c_5.l(libinit2.o)
    0x000242da   0x000242da   0x00000000   Code   RO         2965    .ARM.Collect$$libinit$$00000032  c_5.l(libinit2.o)
    0x000242da   0x000242da   0x00000002   Code   RO         2966    .ARM.Collect$$libinit$$00000033  c_5.l(libinit2.o)
    0x000242dc   0x000242dc   0x00000002   Code   RO         2986    .ARM.Collect$$libshutdown$$00000000  c_5.l(libshutdown.o)
    0x000242de   0x000242de   0x00000000   Code   RO         2999    .ARM.Collect$$libshutdown$$00000002  c_5.l(libshutdown2.o)
    0x000242de   0x000242de   0x00000000   Code   RO         3001    .ARM.Collect$$libshutdown$$00000004  c_5.l(libshutdown2.o)
    0x000242de   0x000242de   0x00000000   Code   RO         3004    .ARM.Collect$$libshutdown$$00000007  c_5.l(libshutdown2.o)
    0x000242de   0x000242de   0x00000000   Code   RO         3007    .ARM.Collect$$libshutdown$$0000000A  c_5.l(libshutdown2.o)
    0x000242de   0x000242de   0x00000000   Code   RO         3009    .ARM.Collect$$libshutdown$$0000000C  c_5.l(libshutdown2.o)
    0x000242de   0x000242de   0x00000000   Code   RO         3012    .ARM.Collect$$libshutdown$$0000000F  c_5.l(libshutdown2.o)
    0x000242de   0x000242de   0x00000002   Code   RO         3013    .ARM.Collect$$libshutdown$$00000010  c_5.l(libshutdown2.o)
    0x000242e0   0x000242e0   0x00000000   Code   RO         2751    .ARM.Collect$$rtentry$$00000000  c_5.l(__rtentry.o)
    0x000242e0   0x000242e0   0x00000000   Code   RO         2828    .ARM.Collect$$rtentry$$00000002  c_5.l(__rtentry2.o)
    0x000242e0   0x000242e0   0x00000008   Code   RO         2840    .ARM.Collect$$rtentry$$00000004  c_5.l(__rtentry4.o)
    0x000242e8   0x000242e8   0x00000000   Code   RO         2830    .ARM.Collect$$rtentry$$00000009  c_5.l(__rtentry2.o)
    0x000242e8   0x000242e8   0x00000004   Code   RO         2831    .ARM.Collect$$rtentry$$0000000A  c_5.l(__rtentry2.o)
    0x000242ec   0x000242ec   0x00000000   Code   RO         2833    .ARM.Collect$$rtentry$$0000000C  c_5.l(__rtentry2.o)
    0x000242ec   0x000242ec   0x00000028   Code   RO         2834    .ARM.Collect$$rtentry$$0000000D  c_5.l(__rtentry2.o)
    0x00024314   0x00024314   0x00000004   Code   RO         2917    .ARM.Collect$$rtexit$$00000000  c_5.l(rtexit.o)
    0x00024318   0x00024318   0x00000000   Code   RO         2968    .ARM.Collect$$rtexit$$00000002  c_5.l(rtexit2.o)
    0x00024318   0x00024318   0x00000004   Code   RO         2969    .ARM.Collect$$rtexit$$00000003  c_5.l(rtexit2.o)
    0x0002431c   0x0002431c   0x00000008   Code   RO         2970    .ARM.Collect$$rtexit$$00000004  c_5.l(rtexit2.o)
    0x00024324   0x00024324   0x00000750   Code   RO            5    .text               arch_main_1.o
    0x00024a74   0x00024a74   0x0000005c   Code   RO          421    .text               mesh_log.o
    0x00024ad0   0x00024ad0   0x00000038   Code   RO          452    .text               rwble_hl.o
    0x00024b08   0x00024b08   0x00000330   Code   RO          479    .text               rwble.o
    0x00024e38   0x00024e38   0x00000440   Code   RO          601    .text               rwip.o
    0x00025278   0x00025278   0x000001a8   Code   RO          679    .text               icu.o
    0x00025420   0x00025420   0x000000d4   Code   RO          707    .text               intc.o
    0x000254f4   0x000254f4   0x00000564   Code   RO          749    .text               uart.o
    0x00025a58   0x00025a58   0x00000018   Code   RO          832    .text               emi.o
    0x00025a70   0x00025a70   0x0000067c   Code   RO          844    .text               flash.o
    0x000260ec   0x000260ec   0x0000002c   Code   RO          874    .text               timer.o
    0x00026118   0x00026118   0x000004a8   Code   RO          895    .text               rf_xvr.o
    0x000265c0   0x000265c0   0x0000008c   Code   RO          917    .text               wdt.o
    0x0002664c   0x0002664c   0x00000304   Code   RO          935    .text               gpio.o
    0x00026950   0x00026950   0x000001b4   Code   RO          965    .text               pwm.o
    0x00026b04   0x00026b04   0x00000444   Code   RO          987    .text               bass.o
    0x00026f48   0x00026f48   0x000002a4   Code   RO         1025    .text               bass_task.o
    0x000271ec   0x000271ec   0x00000180   Code   RO         1063    .text               diss.o
    0x0002736c   0x0002736c   0x000001d0   Code   RO         1086    .text               diss_task.o
    0x0002753c   0x0002753c   0x00000210   Code   RO         1123    .text               fff0s.o
    0x0002774c   0x0002774c   0x00000228   Code   RO         1149    .text               fff0s_task.o
    0x00027974   0x00027974   0x000008c8   Code   RO         1171    .text               oads.o
    0x0002823c   0x0002823c   0x0000031c   Code   RO         1207    .text               oads_task.o
    0x00028558   0x00028558   0x00000328   Code   RO         1241    .text               prf.o
    0x00028880   0x00028880   0x00000060   Code   RO         1267    .text               prf_utils.o
    0x000288e0   0x000288e0   0x00000170   Code   RO         1279    .text               app.o
    0x00028a50   0x00028a50   0x00000884   Code   RO         1332    .text               app_task.o
    0x000292d4   0x000292d4   0x00000abc   Code   RO         1369    .text               app_mesh.o
    0x00029d90   0x00029d90   0x00000614   Code   RO         1453    .text               app_mm_msg.o
    0x0002a3a4   0x0002a3a4   0x00000124   Code   RO         1484    .text               mesh_general_api.o
    0x0002a4c8   0x0002a4c8   0x000000dc   Code   RO         1507    .text               app_batt.o
    0x0002a5a4   0x0002a5a4   0x0000012c   Code   RO         1531    .text               app_dis.o
    0x0002a6d0   0x0002a6d0   0x0000018c   Code   RO         1552    .text               app_fff0.o
    0x0002a85c   0x0002a85c   0x000001f0   Code   RO         1582    .text               app_oads.o
    0x0002aa4c   0x0002aa4c   0x00000474   Code   RO         1607    .text               oad_common.o
    0x0002aec0   0x0002aec0   0x0000019c   Code   RO         1631    .text               ali_config.o
    0x0002b05c   0x0002b05c   0x000008d4   Code   RO         1648    .text               app_light_ali_server.o
    0x0002b930   0x0002b930   0x00000eb0   Code   RO         1736    .text               led.o
    0x0002c7e0   0x0002c7e0   0x000005d0   Code   RO         1793    .text               m_api.o
    0x0002cdb0   0x0002cdb0   0x00000624   Code   RO         1839    .text               m_api_msg.o
    0x0002d3d4   0x0002d3d4   0x000000cc   Code   RO         1864    .text               mesh_api.o
    0x0002d4a0   0x0002d4a0   0x00000140   Code   RO         1889    .text               mesh_api_msg.o
    0x0002d5e0   0x0002d5e0   0x00000040   Code   RO         1907    .text               mesh_param_int.o
    0x0002d620   0x0002d620   0x00000278   Code   RO         1929    .text               mm_api_msg.o
    0x0002d898   0x0002d898   0x0000026c   Code   RO         1947    .text               mm_api.o
    0x0002db04   0x0002db04   0x000005b8   Code   RO         1972    .text               m_fnd_blob_transfer.o
    0x0002e0bc   0x0002e0bc   0x00000330   Code   RO         2023    .text               m_fnd_fw_update.o
    0x0002e3ec   0x0002e3ec   0x000003bc   Code   RO         2044    .text               m_fnd_scenes.o
    0x0002e7a8   0x0002e7a8   0x00000688   Code   RO         2070    .text               mm_vendors.o
    0x0002ee30   0x0002ee30   0x000000a4   Code   RO         2097    .text               mm_gens.o
    0x0002eed4   0x0002eed4   0x00000454   Code   RO         2158    .text               mm_gens_oo.o
    0x0002f328   0x0002f328   0x00000638   Code   RO         2205    .text               mm_lights.o
    0x0002f960   0x0002f960   0x00000d1c   Code   RO         2223    .text               mm_lights_ctl.o
    0x0003067c   0x0003067c   0x0000113c   Code   RO         2240    .text               mm_lights_hsl.o
    0x000317b8   0x000317b8   0x00000a30   Code   RO         2261    .text               mm_lights_ln.o
    0x000321e8   0x000321e8   0x00000c98   Code   RO         2279    .text               aes.o
    0x00032e80   0x00032e80   0x000001b8   Code   RO         2304    .text               ais.o
    0x00033038   0x00033038   0x0000022c   Code   RO         2331    .text               ais_task.o
    0x00033264   0x00033264   0x00000078   Code   RO         2354    .text               app_ais.o
    0x000332dc   0x000332dc   0x00001c40   Code   RO         2378    .text               gma.o
    0x00034f1c   0x00034f1c   0x000002b0   Code   RO         2407    .text               sha256.o
    0x000351cc   0x000351cc   0x000002fc   Code   RO         2425    .text               bk3435_pn9_mode.lib(rf_pn9_test.o)
    0x000354c8   0x000354c8   0x00000e3c   Code   RO         2428    .text               bk3435_ble_mesh_log_warning.lib(lld_adv_test.o)
    0x00036304   0x00036304   0x00000170   Code   RO         2433    .text               bk3435_ble_mesh_log_warning.lib(mal.o)
    0x00036474   0x00036474   0x00000164   Code   RO         2437    .text               bk3435_ble_mesh_log_warning.lib(mal_timer.o)
    0x000365d8   0x000365d8   0x00000070   Code   RO         2439    .text               bk3435_ble_mesh_log_warning.lib(mesh_tb.o)
    0x00036648   0x00036648   0x00000670   Code   RO         2441    .text               bk3435_ble_mesh_log_warning.lib(mesh_tb_buf.o)
    0x00036cb8   0x00036cb8   0x000001b8   Code   RO         2448    .text               bk3435_ble_mesh_log_warning.lib(mesh_tb_timer.o)
    0x00036e70   0x00036e70   0x00000a64   Code   RO         2451    .text               bk3435_ble_mesh_log_warning.lib(m_bcn.o)
    0x000378d4   0x000378d4   0x00000630   Code   RO         2457    .text               bk3435_ble_mesh_log_warning.lib(m_bearer.o)
    0x00037f04   0x00037f04   0x00000050   Code   RO         2462    .text               bk3435_ble_mesh_log_warning.lib(m_fnd.o)
    0x00037f54   0x00037f54   0x0000039c   Code   RO         2464    .text               bk3435_ble_mesh_log_warning.lib(m_fnd_hlths.o)
    0x000382f0   0x000382f0   0x00000170   Code   RO         2468    .text               bk3435_ble_mesh_log_warning.lib(m_lay.o)
    0x00038460   0x00038460   0x00000a48   Code   RO         2470    .text               bk3435_ble_mesh_log_warning.lib(m_lay_access.o)
    0x00038ea8   0x00038ea8   0x00000be8   Code   RO         2476    .text               bk3435_ble_mesh_log_warning.lib(m_lay_proxy.o)
    0x00039a90   0x00039a90   0x00001a2c   Code   RO         2482    .text               bk3435_ble_mesh_log_warning.lib(m_prov.o)
    0x0003b4bc   0x0003b4bc   0x00000424   Code   RO         2487    .text               bk3435_ble_mesh_log_warning.lib(m_prov_bearer.o)
    0x0003b8e0   0x0003b8e0   0x00000090   Code   RO         2491    .text               bk3435_ble_mesh_log_warning.lib(m_tb.o)
    0x0003b970   0x0003b970   0x0000185c   Code   RO         2493    .text               bk3435_ble_mesh_log_warning.lib(m_tb_key.o)
    0x0003d1cc   0x0003d1cc   0x00000a64   Code   RO         2498    .text               bk3435_ble_mesh_log_warning.lib(m_tb_mio.o)
    0x0003dc30   0x0003dc30   0x00000c24   Code   RO         2502    .text               bk3435_ble_mesh_log_warning.lib(m_tb_store_nvds.o)
    0x0003e854   0x0003e854   0x00000644   Code   RO         2507    .text               bk3435_ble_mesh_log_warning.lib(m_tb_state.o)
    0x0003ee98   0x0003ee98   0x00000114   Code   RO         2512    .text               bk3435_ble_mesh_log_warning.lib(mm_tb.o)
    0x0003efac   0x0003efac   0x000007e4   Code   RO         2514    .text               bk3435_ble_mesh_log_warning.lib(mm_tb_bind.o)
    0x0003f790   0x0003f790   0x00000184   Code   RO         2518    .text               bk3435_ble_mesh_log_warning.lib(mm_tb_replay.o)
    0x0003f914   0x0003f914   0x00000210   Code   RO         2521    .text               bk3435_ble_mesh_log_warning.lib(mm_route.o)
    0x0003fb24   0x0003fb24   0x000001a8   Code   RO         2526    .text               bk3435_ble_mesh_log_warning.lib(mm_tb_state.o)
    0x0003fccc   0x0003fccc   0x0000027c   Code   RO         2530    .text               bk3435_ble_mesh_log_warning.lib(mal_adv.o)
    0x0003ff48   0x0003ff48   0x000009f4   Code   RO         2534    .text               bk3435_ble_mesh_log_warning.lib(mal_con.o)
    0x0004093c   0x0004093c   0x000000a8   Code   RO         2538    .text               bk3435_ble_mesh_log_warning.lib(mal_djob.o)
    0x000409e4   0x000409e4   0x000001bc   Code   RO         2540    .text               bk3435_ble_mesh_log_warning.lib(mal_sec.o)
    0x00040ba0   0x00040ba0   0x0000017c   Code   RO         2542    .text               bk3435_ble_mesh_log_warning.lib(mal_task.o)
    0x00040d1c   0x00040d1c   0x0000034c   Code   RO         2547    .text               bk3435_ble_mesh_log_warning.lib(mesh_tb_sec.o)
    0x00041068   0x00041068   0x000000a0   Code   RO         2551    .text               bk3435_ble_mesh_log_warning.lib(mesh.o)
    0x00041108   0x00041108   0x00000420   Code   RO         2553    .text               bk3435_ble_mesh_log_warning.lib(m_bearer_adv.o)
    0x00041528   0x00041528   0x000003d4   Code   RO         2556    .text               bk3435_ble_mesh_log_warning.lib(m_bearer_gatt.o)
    0x000418fc   0x000418fc   0x00001be0   Code   RO         2560    .text               bk3435_ble_mesh_log_warning.lib(m_fnd_confs.o)
    0x000434dc   0x000434dc   0x000001f8   Code   RO         2565    .text               bk3435_ble_mesh_log_warning.lib(m_lay_hb.o)
    0x000436d4   0x000436d4   0x00000d7c   Code   RO         2571    .text               bk3435_ble_mesh_log_warning.lib(m_lay_ltrans.o)
    0x00044450   0x00044450   0x00000f3c   Code   RO         2578    .text               bk3435_ble_mesh_log_warning.lib(m_lay_net.o)
    0x0004538c   0x0004538c   0x000008ac   Code   RO         2584    .text               bk3435_ble_mesh_log_warning.lib(m_lay_utrans.o)
    0x00045c38   0x00045c38   0x00000984   Code   RO         2591    .text               bk3435_ble_mesh_log_warning.lib(m_prov_adv_trans.o)
    0x000465bc   0x000465bc   0x000001f0   Code   RO         2595    .text               bk3435_ble_mesh_log_warning.lib(aes.o)
    0x000467ac   0x000467ac   0x00000378   Code   RO         2599    .text               bk3435_ble_mesh_log_warning.lib(aes_ccm.o)
    0x00046b24   0x00046b24   0x000001a8   Code   RO         2602    .text               bk3435_ble_mesh_log_warning.lib(aes_cmac.o)
    0x00046ccc   0x00046ccc   0x00000070   Code   RO         2605    .text               bk3435_ble_mesh_log_warning.lib(aes_k1.o)
    0x00046d3c   0x00046d3c   0x00000150   Code   RO         2607    .text               bk3435_ble_mesh_log_warning.lib(aes_k2.o)
    0x00046e8c   0x00046e8c   0x0000009c   Code   RO         2610    .text               bk3435_ble_mesh_log_warning.lib(aes_k3.o)
    0x00046f28   0x00046f28   0x000000a4   Code   RO         2613    .text               bk3435_ble_mesh_log_warning.lib(aes_k4.o)
    0x00046fcc   0x00046fcc   0x00000058   Code   RO         2616    .text               bk3435_ble_mesh_log_warning.lib(aes_s1.o)
    0x00047024   0x00047024   0x00000018   Code   RO         2621    .text               c_5.l(llmul.o)
    0x0004703c   0x0004703c   0x00000038   Code   RO         2625    .text               c_5.l(vsnprintf.o)
    0x00047074   0x00047074   0x0000002c   Code   RO         2627    .text               c_5.l(__2sprintf.o)
    0x000470a0   0x000470a0   0x0000004e   Code   RO         2633    .text               c_5.l(_printf_pad.o)
    0x000470ee   0x000470ee   0x00000052   Code   RO         2635    .text               c_5.l(_printf_str.o)
    0x00047140   0x00047140   0x00000008   Ven    RO         2655    .text               c_5.l(_printf_hex_int_ll_ptr.o)
    0x00047148   0x00047148   0x00000098   Code   RO         2655    .text               c_5.l(_printf_hex_int_ll_ptr.o)
    0x000471e0   0x000471e0   0x00000188   Code   RO         2675    .text               c_5.l(__printf_flags_ss_wp.o)
    0x00047368   0x00047368   0x000000f4   Code   RO         2689    .text               c_5.l(strcmp.o)
    0x0004745c   0x0004745c   0x00000020   Code   RO         2691    .text               c_5.l(uread4.o)
    0x0004747c   0x0004747c   0x00000020   Code   RO         2693    .text               c_5.l(uwrite4.o)
    0x0004749c   0x0004749c   0x0000002c   Code   RO         2752    .text               c_5.l(_printf_truncate.o)
    0x000474c8   0x000474c8   0x000000b0   Code   RO         2754    .text               c_5.l(_printf_intcommon.o)
    0x00047578   0x00047578   0x00000008   Ven    RO         2756    .text               c_5.l(_printf_dec.o)
    0x00047580   0x00047580   0x0000006c   Code   RO         2756    .text               c_5.l(_printf_dec.o)
    0x000475ec   0x000475ec   0x00000008   Ven    RO         2758    .text               c_5.l(_printf_charcount.o)
    0x000475f4   0x000475f4   0x00000026   Code   RO         2758    .text               c_5.l(_printf_charcount.o)
    0x0004761a   0x0004761a   0x00000002   PAD
    0x0004761c   0x0004761c   0x00000030   Code   RO         2760    .text               c_5.l(_printf_char_common.o)
    0x0004764c   0x0004764c   0x0000000a   Code   RO         2762    .text               c_5.l(_sputc.o)
    0x00047656   0x00047656   0x00000010   Code   RO         2764    .text               c_5.l(_snputc.o)
    0x00047666   0x00047666   0x00000002   PAD
    0x00047668   0x00047668   0x00000008   Ven    RO         2766    .text               c_5.l(_printf_char.o)
    0x00047670   0x00047670   0x0000002e   Code   RO         2766    .text               c_5.l(_printf_char.o)
    0x0004769e   0x0004769e   0x00000002   PAD
    0x000476a0   0x000476a0   0x000000bc   Code   RO         2768    .text               c_5.l(_printf_wctomb.o)
    0x0004775c   0x0004775c   0x00000008   Ven    RO         2771    .text               c_5.l(_printf_longlong_dec.o)
    0x00047764   0x00047764   0x00000070   Code   RO         2771    .text               c_5.l(_printf_longlong_dec.o)
    0x000477d4   0x000477d4   0x00000008   Ven    RO         2777    .text               c_5.l(_printf_oct_int_ll.o)
    0x000477dc   0x000477dc   0x00000070   Code   RO         2777    .text               c_5.l(_printf_oct_int_ll.o)
    0x0004784c   0x0004784c   0x00000098   Code   RO         2842    .text               c_5.l(lludiv10.o)
    0x000478e4   0x000478e4   0x00000414   Code   RO         2844    .text               c_5.l(_printf_fp_dec.o)
    0x00047cf8   0x00047cf8   0x00000008   Ven    RO         2846    .text               c_5.l(_printf_fp_hex.o)
    0x00047d00   0x00047d00   0x000002d8   Code   RO         2846    .text               c_5.l(_printf_fp_hex.o)
    0x00047fd8   0x00047fd8   0x00000008   Ven    RO         2851    .text               c_5.l(_printf_wchar.o)
    0x00047fe0   0x00047fe0   0x0000002e   Code   RO         2851    .text               c_5.l(_printf_wchar.o)
    0x0004800e   0x0004800e   0x00000040   Code   RO         2853    .text               c_5.l(_wcrtomb.o)
    0x0004804e   0x0004804e   0x00000002   PAD
    0x00048050   0x00048050   0x0000002c   Code   RO         2855    .text               c_5.l(rtudiv10.o)
    0x0004807c   0x0004807c   0x00000060   Code   RO         2861    .text               c_5.l(sys_stackheap_outer.o)
    0x000480dc   0x000480dc   0x00000014   Code   RO         2863    .text               c_5.l(rt_ctype_table.o)
    0x000480f0   0x000480f0   0x0000000c   Code   RO         2868    .text               c_5.l(rt_locale_intlibspace.o)
    0x000480fc   0x000480fc   0x00000088   Code   RO         2870    .text               c_5.l(_printf_fp_infnan.o)
    0x00048184   0x00048184   0x000000d8   Code   RO         2872    .text               c_5.l(bigflt0.o)
    0x0004825c   0x0004825c   0x00000010   Code   RO         2900    .text               c_5.l(exit.o)
    0x0004826c   0x0004826c   0x0000000c   Code   RO         2914    .text               c_5.l(libspace.o)
    0x00048278   0x00048278   0x0000000c   Code   RO         2978    .text               c_5.l(sys_exit.o)
    0x00048284   0x00048284   0x00000004   Code   RO         2989    .text               c_5.l(use_no_semi.o)
    0x00048288   0x00048288   0x00000000   Code   RO         2991    .text               c_5.l(indicate_semi.o)
    0x00048288   0x00048288   0x00000038   Code   RO         2875    CL$$btod_d2e        c_5.l(btod.o)
    0x000482c0   0x000482c0   0x00000054   Code   RO         2877    CL$$btod_d2e_denorm_low  c_5.l(btod.o)
    0x00048314   0x00048314   0x00000068   Code   RO         2876    CL$$btod_d2e_norm_op1  c_5.l(btod.o)
    0x0004837c   0x0004837c   0x00000348   Code   RO         2885    CL$$btod_div_common  c_5.l(btod.o)
    0x000486c4   0x000486c4   0x000000f4   Code   RO         2882    CL$$btod_e2e        c_5.l(btod.o)
    0x000487b8   0x000487b8   0x00000034   Code   RO         2879    CL$$btod_ediv       c_5.l(btod.o)
    0x000487ec   0x000487ec   0x00000034   Code   RO         2878    CL$$btod_emul       c_5.l(btod.o)
    0x00048820   0x00048820   0x00000264   Code   RO         2884    CL$$btod_mult_common  c_5.l(btod.o)
    0x00048a84   0x00048a84   0x00000008   Ven    RO         3065    Veneer$$Code        anon$$obj.o
    0x00048a8c   0x00048a8c   0x00000008   Ven    RO         3066    Veneer$$Code        anon$$obj.o
    0x00048a94   0x00048a94   0x00000008   Ven    RO         3067    Veneer$$Code        anon$$obj.o
    0x00048a9c   0x00048a9c   0x00000008   Ven    RO         3068    Veneer$$Code        anon$$obj.o
    0x00048aa4   0x00048aa4   0x00000008   Ven    RO         3069    Veneer$$Code        anon$$obj.o
    0x00048aac   0x00048aac   0x00000008   Ven    RO         3070    Veneer$$Code        anon$$obj.o
    0x00048ab4   0x00048ab4   0x0000003a   Code   RO         2455    i.__ARM_common_ctz  bk3435_ble_mesh_log_warning.lib(m_bcn.o)
    0x00048aee   0x00048aee   0x00000002   PAD
    0x00048af0   0x00048af0   0x00000030   Code   RO         2912    i.__ARM_fpclassify  m_5s.l(fpclassify.o)
    0x00048b20   0x00048b20   0x0000000e   Code   RO         2668    i._is_digit         c_5.l(__printf_wp.o)
    0x00048b2e   0x00048b2e   0x00000002   PAD
    0x00048b30   0x00048b30   0x0000012c   Code   RO         2746    i.ceil              m_5s.l(ceil.o)
    0x00048c5c   0x00048c5c   0x000000dc   Code   RO         2749    i.round             m_5s.l(round.o)
    0x00048d38   0x00048d38   0x00000048   Code   RO         2898    locale$$code        c_5.l(lc_numeric_c.o)
    0x00048d80   0x00048d80   0x00000048   Code   RO         2920    locale$$code        c_5.l(lc_ctype_c.o)
    0x00048dc8   0x00048dc8   0x0000006c   Code   RO         2697    x$fpl$d2f           fz_5s.l(d2f.o)
    0x00048e34   0x00048e34   0x00000154   Code   RO         2699    x$fpl$dadd          fz_5s.l(daddsub_clz.o)
    0x00048f88   0x00048f88   0x00000010   Code   RO         2800    x$fpl$dcheck1       fz_5s.l(dcheck1.o)
    0x00048f98   0x00048f98   0x0000001c   Code   RO         2857    x$fpl$dcmpinf       fz_5s.l(dcmpi.o)
    0x00048fb4   0x00048fb4   0x000002d0   Code   RO         2706    x$fpl$ddiv          fz_5s.l(ddiv.o)
    0x00049284   0x00049284   0x00000070   Code   RO         2709    x$fpl$dfixu         fz_5s.l(dfixu.o)
    0x000492f4   0x000492f4   0x00000034   Code   RO         2714    x$fpl$dflt          fz_5s.l(dflt_clz.o)
    0x00049328   0x00049328   0x0000002c   Code   RO         2713    x$fpl$dfltu         fz_5s.l(dflt_clz.o)
    0x00049354   0x00049354   0x00000094   Code   RO         2802    x$fpl$dleqf         fz_5s.l(dleqf.o)
    0x000493e8   0x000493e8   0x00000178   Code   RO         2719    x$fpl$dmul          fz_5s.l(dmul.o)
    0x00049560   0x00049560   0x000000b8   Code   RO         2804    x$fpl$dnaninf       fz_5s.l(dnaninf.o)
    0x00049618   0x00049618   0x00000010   Code   RO         2806    x$fpl$dretinf       fz_5s.l(dretinf.o)
    0x00049628   0x00049628   0x0000008c   Code   RO         2808    x$fpl$drleqf        fz_5s.l(drleqf.o)
    0x000496b4   0x000496b4   0x000000c0   Code   RO         2810    x$fpl$drnd          fz_5s.l(drnd.o)
    0x00049774   0x00049774   0x00000018   Code   RO         2700    x$fpl$drsb          fz_5s.l(daddsub_clz.o)
    0x0004978c   0x0004978c   0x00000200   Code   RO         2701    x$fpl$dsub          fz_5s.l(daddsub_clz.o)
    0x0004998c   0x0004998c   0x00000064   Code   RO         2721    x$fpl$f2d           fz_5s.l(f2d.o)
    0x000499f0   0x000499f0   0x000000c4   Code   RO         2723    x$fpl$fadd          fz_5s.l(faddsub_clz.o)
    0x00049ab4   0x00049ab4   0x0000000c   Code   RO         2812    x$fpl$fcheck1       fz_5s.l(fcheck1.o)
    0x00049ac0   0x00049ac0   0x00000190   Code   RO         2730    x$fpl$fdiv          fz_5s.l(fdiv.o)
    0x00049c50   0x00049c50   0x00000028   Code   RO         2733    x$fpl$ffltu         fz_5s.l(fflt_clz.o)
    0x00049c78   0x00049c78   0x00000100   Code   RO         2739    x$fpl$fmul          fz_5s.l(fmul.o)
    0x00049d78   0x00049d78   0x000000a0   Code   RO         2814    x$fpl$fnaninf       fz_5s.l(fnaninf.o)
    0x00049e18   0x00049e18   0x00000010   Code   RO         2816    x$fpl$fretinf       fz_5s.l(fretinf.o)
    0x00049e28   0x00049e28   0x00000014   Code   RO         2724    x$fpl$frsb          fz_5s.l(faddsub_clz.o)
    0x00049e3c   0x00049e3c   0x00000100   Code   RO         2725    x$fpl$fsub          fz_5s.l(faddsub_clz.o)
    0x00049f3c   0x00049f3c   0x00000008   Code   RO         2908    x$fpl$ieeestatus    fz_5s.l(istatus.o)
    0x00049f44   0x00049f44   0x00000004   Code   RO         2818    x$fpl$printf1       fz_5s.l(printf1.o)
    0x00049f48   0x00049f48   0x00000004   Code   RO         2820    x$fpl$printf2       fz_5s.l(printf2.o)
    0x00049f4c   0x00049f4c   0x00000074   Code   RO         2859    x$fpl$retnan        fz_5s.l(retnan.o)
    0x00049fc0   0x00049fc0   0x00000068   Code   RO         2741    x$fpl$scalbn        fz_5s.l(scalbn.o)
    0x0004a028   0x0004a028   0x0000005c   Code   RO         2743    x$fpl$scalbnf       fz_5s.l(scalbnf.o)
    0x0004a084   0x0004a084   0x0000003c   Code   RO         2910    x$fpl$trapveneer    fz_5s.l(trapv.o)
    0x0004a0c0   0x0004a0c0   0x00000000   Code   RO         2826    x$fpl$usenofp       fz_5s.l(usenofp.o)
    0x0004a0c0   0x0004a0c0   0x0000002e   Data   RO            7    .constdata          arch_main_1.o
    0x0004a0ee   0x0004a0ee   0x00000011   Data   RO          423    .constdata          mesh_log.o
    0x0004a0ff   0x0004a0ff   0x00000001   PAD
    0x0004a100   0x0004a100   0x00000038   Data   RO          988    .constdata          bass.o
    0x0004a138   0x0004a138   0x00000030   Data   RO         1026    .constdata          bass_task.o
    0x0004a168   0x0004a168   0x00000008   Data   RO         1027    .constdata          bass_task.o
    0x0004a170   0x0004a170   0x000000a8   Data   RO         1064    .constdata          diss.o
    0x0004a218   0x0004a218   0x00000018   Data   RO         1087    .constdata          diss_task.o
    0x0004a230   0x0004a230   0x00000008   Data   RO         1088    .constdata          diss_task.o
    0x0004a238   0x0004a238   0x00000040   Data   RO         1124    .constdata          fff0s.o
    0x0004a278   0x0004a278   0x00000028   Data   RO         1150    .constdata          fff0s_task.o
    0x0004a2a0   0x0004a2a0   0x00000008   Data   RO         1151    .constdata          fff0s_task.o
    0x0004a2a8   0x0004a2a8   0x0000007e   Data   RO         1173    .constdata          oads.o
    0x0004a326   0x0004a326   0x00000002   PAD
    0x0004a328   0x0004a328   0x00000030   Data   RO         1208    .constdata          oads_task.o
    0x0004a358   0x0004a358   0x00000008   Data   RO         1209    .constdata          oads_task.o
    0x0004a360   0x0004a360   0x00000032   Data   RO         1210    .constdata          oads_task.o
    0x0004a392   0x0004a392   0x00000002   PAD
    0x0004a394   0x0004a394   0x00000028   Data   RO         1281    .constdata          app.o
    0x0004a3bc   0x0004a3bc   0x00000088   Data   RO         1333    .constdata          app_task.o
    0x0004a444   0x0004a444   0x00000008   Data   RO         1334    .constdata          app_task.o
    0x0004a44c   0x0004a44c   0x000000b5   Data   RO         1335    .constdata          app_task.o
    0x0004a501   0x0004a501   0x00000003   PAD
    0x0004a504   0x0004a504   0x00000050   Data   RO         1371    .constdata          app_mesh.o
    0x0004a554   0x0004a554   0x00000008   Data   RO         1372    .constdata          app_mesh.o
    0x0004a55c   0x0004a55c   0x00000092   Data   RO         1373    .constdata          app_mesh.o
    0x0004a5ee   0x0004a5ee   0x00000002   PAD
    0x0004a5f0   0x0004a5f0   0x00000020   Data   RO         1508    .constdata          app_batt.o
    0x0004a610   0x0004a610   0x00000008   Data   RO         1509    .constdata          app_batt.o
    0x0004a618   0x0004a618   0x00000008   Data   RO         1532    .constdata          app_dis.o
    0x0004a620   0x0004a620   0x00000008   Data   RO         1533    .constdata          app_dis.o
    0x0004a628   0x0004a628   0x00000028   Data   RO         1553    .constdata          app_fff0.o
    0x0004a650   0x0004a650   0x00000008   Data   RO         1554    .constdata          app_fff0.o
    0x0004a658   0x0004a658   0x0000001a   Data   RO         1555    .constdata          app_fff0.o
    0x0004a672   0x0004a672   0x00000002   PAD
    0x0004a674   0x0004a674   0x00000030   Data   RO         1583    .constdata          app_oads.o
    0x0004a6a4   0x0004a6a4   0x00000008   Data   RO         1584    .constdata          app_oads.o
    0x0004a6ac   0x0004a6ac   0x000000a8   Data   RO         1585    .constdata          app_oads.o
    0x0004a754   0x0004a754   0x00000014   Data   RO         1609    .constdata          oad_common.o
    0x0004a768   0x0004a768   0x00000053   Data   RO         1632    .constdata          ali_config.o
    0x0004a7bb   0x0004a7bb   0x00000035   Data   RO         1650    .constdata          app_light_ali_server.o
    0x0004a7f0   0x0004a7f0   0x00000304   Data   RO         1740    .constdata          led.o
    0x0004aaf4   0x0004aaf4   0x0000008b   Data   RO         1794    .constdata          m_api.o
    0x0004ab7f   0x0004ab7f   0x00000001   PAD
    0x0004ab80   0x0004ab80   0x00000048   Data   RO         1840    .constdata          m_api_msg.o
    0x0004abc8   0x0004abc8   0x00000004   Data   RO         1890    .constdata          mesh_api_msg.o
    0x0004abcc   0x0004abcc   0x00000037   Data   RO         1930    .constdata          mm_api_msg.o
    0x0004ac03   0x0004ac03   0x00000001   PAD
    0x0004ac04   0x0004ac04   0x00000010   Data   RO         1974    .constdata          m_fnd_blob_transfer.o
    0x0004ac14   0x0004ac14   0x00000010   Data   RO         2025    .constdata          m_fnd_fw_update.o
    0x0004ac24   0x0004ac24   0x00000010   Data   RO         2045    .constdata          m_fnd_scenes.o
    0x0004ac34   0x0004ac34   0x00000014   Data   RO         2098    .constdata          mm_gens.o
    0x0004ac48   0x0004ac48   0x0000003d   Data   RO         2159    .constdata          mm_gens_oo.o
    0x0004ac85   0x0004ac85   0x0000005f   Data   RO         2206    .constdata          mm_lights.o
    0x0004ace4   0x0004ace4   0x0000007d   Data   RO         2224    .constdata          mm_lights_ctl.o
    0x0004ad61   0x0004ad61   0x00000150   Data   RO         2241    .constdata          mm_lights_hsl.o
    0x0004aeb1   0x0004aeb1   0x0000008a   Data   RO         2262    .constdata          mm_lights_ln.o
    0x0004af3b   0x0004af3b   0x00000001   PAD
    0x0004af3c   0x0004af3c   0x00002128   Data   RO         2280    .constdata          aes.o
    0x0004d064   0x0004d064   0x00000078   Data   RO         2305    .constdata          ais.o
    0x0004d0dc   0x0004d0dc   0x00000028   Data   RO         2332    .constdata          ais_task.o
    0x0004d104   0x0004d104   0x00000008   Data   RO         2333    .constdata          ais_task.o
    0x0004d10c   0x0004d10c   0x00000010   Data   RO         2355    .constdata          app_ais.o
    0x0004d11c   0x0004d11c   0x00000008   Data   RO         2356    .constdata          app_ais.o
    0x0004d124   0x0004d124   0x00000100   Data   RO         2408    .constdata          sha256.o
    0x0004d224   0x0004d224   0x00000010   Data   RO         2434    .constdata          bk3435_ble_mesh_log_warning.lib(mal.o)
    0x0004d234   0x0004d234   0x000000cf   Data   RO         2442    .constdata          bk3435_ble_mesh_log_warning.lib(mesh_tb_buf.o)
    0x0004d303   0x0004d303   0x00000001   PAD
    0x0004d304   0x0004d304   0x00000063   Data   RO         2452    .constdata          bk3435_ble_mesh_log_warning.lib(m_bcn.o)
    0x0004d367   0x0004d367   0x00000001   PAD
    0x0004d368   0x0004d368   0x00000008   Data   RO         2458    .constdata          bk3435_ble_mesh_log_warning.lib(m_bearer.o)
    0x0004d370   0x0004d370   0x00000052   Data   RO         2459    .constdata          bk3435_ble_mesh_log_warning.lib(m_bearer.o)
    0x0004d3c2   0x0004d3c2   0x00000002   PAD
    0x0004d3c4   0x0004d3c4   0x0000007b   Data   RO         2465    .constdata          bk3435_ble_mesh_log_warning.lib(m_fnd_hlths.o)
    0x0004d43f   0x0004d43f   0x00000001   PAD
    0x0004d440   0x0004d440   0x00000008   Data   RO         2471    .constdata          bk3435_ble_mesh_log_warning.lib(m_lay_access.o)
    0x0004d448   0x0004d448   0x0000007a   Data   RO         2472    .constdata          bk3435_ble_mesh_log_warning.lib(m_lay_access.o)
    0x0004d4c2   0x0004d4c2   0x00000002   PAD
    0x0004d4c4   0x0004d4c4   0x00000010   Data   RO         2477    .constdata          bk3435_ble_mesh_log_warning.lib(m_lay_proxy.o)
    0x0004d4d4   0x0004d4d4   0x000000d3   Data   RO         2478    .constdata          bk3435_ble_mesh_log_warning.lib(m_lay_proxy.o)
    0x0004d5a7   0x0004d5a7   0x00000001   PAD
    0x0004d5a8   0x0004d5a8   0x000002b0   Data   RO         2483    .constdata          bk3435_ble_mesh_log_warning.lib(m_prov.o)
    0x0004d858   0x0004d858   0x00000089   Data   RO         2488    .constdata          bk3435_ble_mesh_log_warning.lib(m_prov_bearer.o)
    0x0004d8e1   0x0004d8e1   0x000000b9   Data   RO         2494    .constdata          bk3435_ble_mesh_log_warning.lib(m_tb_key.o)
    0x0004d99a   0x0004d99a   0x0000004a   Data   RO         2499    .constdata          bk3435_ble_mesh_log_warning.lib(m_tb_mio.o)
    0x0004d9e4   0x0004d9e4   0x00000063   Data   RO         2503    .constdata          bk3435_ble_mesh_log_warning.lib(m_tb_store_nvds.o)
    0x0004da47   0x0004da47   0x00000092   Data   RO         2508    .constdata          bk3435_ble_mesh_log_warning.lib(m_tb_state.o)
    0x0004dad9   0x0004dad9   0x0000008f   Data   RO         2515    .constdata          bk3435_ble_mesh_log_warning.lib(mm_tb_bind.o)
    0x0004db68   0x0004db68   0x00000010   Data   RO         2522    .constdata          bk3435_ble_mesh_log_warning.lib(mm_route.o)
    0x0004db78   0x0004db78   0x00000053   Data   RO         2523    .constdata          bk3435_ble_mesh_log_warning.lib(mm_route.o)
    0x0004dbcb   0x0004dbcb   0x00000028   Data   RO         2527    .constdata          bk3435_ble_mesh_log_warning.lib(mm_tb_state.o)
    0x0004dbf3   0x0004dbf3   0x00000001   PAD
    0x0004dbf4   0x0004dbf4   0x0000000c   Data   RO         2531    .constdata          bk3435_ble_mesh_log_warning.lib(mal_adv.o)
    0x0004dc00   0x0004dc00   0x00000060   Data   RO         2535    .constdata          bk3435_ble_mesh_log_warning.lib(mal_con.o)
    0x0004dc60   0x0004dc60   0x00000010   Data   RO         2536    .constdata          bk3435_ble_mesh_log_warning.lib(mal_con.o)
    0x0004dc70   0x0004dc70   0x00000048   Data   RO         2543    .constdata          bk3435_ble_mesh_log_warning.lib(mal_task.o)
    0x0004dcb8   0x0004dcb8   0x00000008   Data   RO         2544    .constdata          bk3435_ble_mesh_log_warning.lib(mal_task.o)
    0x0004dcc0   0x0004dcc0   0x00000014   Data   RO         2548    .constdata          bk3435_ble_mesh_log_warning.lib(mesh_tb_sec.o)
    0x0004dcd4   0x0004dcd4   0x00000039   Data   RO         2554    .constdata          bk3435_ble_mesh_log_warning.lib(m_bearer_adv.o)
    0x0004dd0d   0x0004dd0d   0x00000003   PAD
    0x0004dd10   0x0004dd10   0x00000092   Data   RO         2557    .constdata          bk3435_ble_mesh_log_warning.lib(m_bearer_gatt.o)
    0x0004dda2   0x0004dda2   0x00000002   PAD
    0x0004dda4   0x0004dda4   0x00000471   Data   RO         2561    .constdata          bk3435_ble_mesh_log_warning.lib(m_fnd_confs.o)
    0x0004e215   0x0004e215   0x00000003   PAD
    0x0004e218   0x0004e218   0x00000008   Data   RO         2566    .constdata          bk3435_ble_mesh_log_warning.lib(m_lay_hb.o)
    0x0004e220   0x0004e220   0x00000004   Data   RO         2567    .constdata          bk3435_ble_mesh_log_warning.lib(m_lay_hb.o)
    0x0004e224   0x0004e224   0x0000000e   Data   RO         2568    .constdata          bk3435_ble_mesh_log_warning.lib(m_lay_hb.o)
    0x0004e232   0x0004e232   0x00000002   PAD
    0x0004e234   0x0004e234   0x00000004   Data   RO         2572    .constdata          bk3435_ble_mesh_log_warning.lib(m_lay_ltrans.o)
    0x0004e238   0x0004e238   0x00000010   Data   RO         2573    .constdata          bk3435_ble_mesh_log_warning.lib(m_lay_ltrans.o)
    0x0004e248   0x0004e248   0x0000005c   Data   RO         2574    .constdata          bk3435_ble_mesh_log_warning.lib(m_lay_ltrans.o)
    0x0004e2a4   0x0004e2a4   0x00000004   Data   RO         2579    .constdata          bk3435_ble_mesh_log_warning.lib(m_lay_net.o)
    0x0004e2a8   0x0004e2a8   0x00000010   Data   RO         2580    .constdata          bk3435_ble_mesh_log_warning.lib(m_lay_net.o)
    0x0004e2b8   0x0004e2b8   0x0000010b   Data   RO         2581    .constdata          bk3435_ble_mesh_log_warning.lib(m_lay_net.o)
    0x0004e3c3   0x0004e3c3   0x00000001   PAD
    0x0004e3c4   0x0004e3c4   0x00000004   Data   RO         2585    .constdata          bk3435_ble_mesh_log_warning.lib(m_lay_utrans.o)
    0x0004e3c8   0x0004e3c8   0x00000008   Data   RO         2586    .constdata          bk3435_ble_mesh_log_warning.lib(m_lay_utrans.o)
    0x0004e3d0   0x0004e3d0   0x000000b0   Data   RO         2587    .constdata          bk3435_ble_mesh_log_warning.lib(m_lay_utrans.o)
    0x0004e480   0x0004e480   0x0000017c   Data   RO         2592    .constdata          bk3435_ble_mesh_log_warning.lib(m_prov_adv_trans.o)
    0x0004e5fc   0x0004e5fc   0x0000000a   Data   RO         2597    .constdata          bk3435_ble_mesh_log_warning.lib(aes.o)
    0x0004e606   0x0004e606   0x00000008   Data   RO         2600    .constdata          bk3435_ble_mesh_log_warning.lib(aes_ccm.o)
    0x0004e60e   0x0004e60e   0x00000019   Data   RO         2603    .constdata          bk3435_ble_mesh_log_warning.lib(aes_cmac.o)
    0x0004e627   0x0004e627   0x00000010   Data   RO         2608    .constdata          bk3435_ble_mesh_log_warning.lib(aes_k2.o)
    0x0004e637   0x0004e637   0x0000001c   Data   RO         2611    .constdata          bk3435_ble_mesh_log_warning.lib(aes_k3.o)
    0x0004e653   0x0004e653   0x0000001b   Data   RO         2614    .constdata          bk3435_ble_mesh_log_warning.lib(aes_k4.o)
    0x0004e66e   0x0004e66e   0x00000007   Data   RO         2617    .constdata          bk3435_ble_mesh_log_warning.lib(aes_s1.o)
    0x0004e675   0x0004e675   0x00000028   Data   RO         2656    .constdata          c_5.l(_printf_hex_int_ll_ptr.o)
    0x0004e69d   0x0004e69d   0x00000011   Data   RO         2676    .constdata          c_5.l(__printf_flags_ss_wp.o)
    0x0004e6ae   0x0004e6ae   0x00000002   PAD
    0x0004e6b0   0x0004e6b0   0x00000008   Data   RO         2769    .constdata          c_5.l(_printf_wctomb.o)
    0x0004e6b8   0x0004e6b8   0x00000026   Data   RO         2847    .constdata          c_5.l(_printf_fp_hex.o)
    0x0004e6de   0x0004e6de   0x00000002   PAD
    0x0004e6e0   0x0004e6e0   0x00000094   Data   RO         2873    .constdata          c_5.l(bigflt0.o)
    0x0004e774   0x0004e774   0x00000107   Data   RO            8    .conststring        arch_main_1.o
    0x0004e87b   0x0004e87b   0x00000001   PAD
    0x0004e87c   0x0004e87c   0x00000042   Data   RO         1282    .conststring        app.o
    0x0004e8be   0x0004e8be   0x00000002   PAD
    0x0004e8c0   0x0004e8c0   0x00000090   Data   RO         1336    .conststring        app_task.o
    0x0004e950   0x0004e950   0x000000ca   Data   RO         1374    .conststring        app_mesh.o
    0x0004ea1a   0x0004ea1a   0x00000002   PAD
    0x0004ea1c   0x0004ea1c   0x00000042   Data   RO         1454    .conststring        app_mm_msg.o
    0x0004ea5e   0x0004ea5e   0x00000002   PAD
    0x0004ea60   0x0004ea60   0x00000043   Data   RO         1651    .conststring        app_light_ali_server.o
    0x0004eaa3   0x0004eaa3   0x00000001   PAD
    0x0004eaa4   0x0004eaa4   0x00000113   Data   RO         2071    .conststring        mm_vendors.o
    0x0004ebb7   0x0004ebb7   0x00000001   PAD
    0x0004ebb8   0x0004ebb8   0x0000004d   Data   RO         2099    .conststring        mm_gens.o
    0x0004ec05   0x0004ec05   0x00000003   PAD
    0x0004ec08   0x0004ec08   0x00000107   Data   RO         2207    .conststring        mm_lights.o
    0x0004ed0f   0x0004ed0f   0x00000001   PAD
    0x0004ed10   0x0004ed10   0x00000162   Data   RO         2263    .conststring        mm_lights_ln.o
    0x0004ee72   0x0004ee72   0x00000002   PAD
    0x0004ee74   0x0004ee74   0x0000004e   Data   RO         2380    .conststring        gma.o
    0x0004eec2   0x0004eec2   0x00000002   PAD
    0x0004eec4   0x0004eec4   0x00000041   Data   RO         2443    .conststring        bk3435_ble_mesh_log_warning.lib(mesh_tb_buf.o)
    0x0004ef05   0x0004ef05   0x00000003   PAD
    0x0004ef08   0x0004ef08   0x0000019f   Data   RO         2473    .conststring        bk3435_ble_mesh_log_warning.lib(m_lay_access.o)
    0x0004f0a7   0x0004f0a7   0x00000001   PAD
    0x0004f0a8   0x0004f0a8   0x00000052   Data   RO         2479    .conststring        bk3435_ble_mesh_log_warning.lib(m_lay_proxy.o)
    0x0004f0fa   0x0004f0fa   0x00000002   PAD
    0x0004f0fc   0x0004f0fc   0x000001b1   Data   RO         2484    .conststring        bk3435_ble_mesh_log_warning.lib(m_prov.o)
    0x0004f2ad   0x0004f2ad   0x00000003   PAD
    0x0004f2b0   0x0004f2b0   0x00000048   Data   RO         2489    .conststring        bk3435_ble_mesh_log_warning.lib(m_prov_bearer.o)
    0x0004f2f8   0x0004f2f8   0x00000042   Data   RO         2495    .conststring        bk3435_ble_mesh_log_warning.lib(m_tb_key.o)
    0x0004f33a   0x0004f33a   0x00000002   PAD
    0x0004f33c   0x0004f33c   0x00000056   Data   RO         2504    .conststring        bk3435_ble_mesh_log_warning.lib(m_tb_store_nvds.o)
    0x0004f392   0x0004f392   0x00000002   PAD
    0x0004f394   0x0004f394   0x00000099   Data   RO         2509    .conststring        bk3435_ble_mesh_log_warning.lib(m_tb_state.o)
    0x0004f42d   0x0004f42d   0x00000003   PAD
    0x0004f430   0x0004f430   0x00000042   Data   RO         2545    .conststring        bk3435_ble_mesh_log_warning.lib(mal_task.o)
    0x0004f472   0x0004f472   0x00000002   PAD
    0x0004f474   0x0004f474   0x00000046   Data   RO         2558    .conststring        bk3435_ble_mesh_log_warning.lib(m_bearer_gatt.o)
    0x0004f4ba   0x0004f4ba   0x00000002   PAD
    0x0004f4bc   0x0004f4bc   0x00000097   Data   RO         2562    .conststring        bk3435_ble_mesh_log_warning.lib(m_fnd_confs.o)
    0x0004f553   0x0004f553   0x00000001   PAD
    0x0004f554   0x0004f554   0x00000042   Data   RO         2575    .conststring        bk3435_ble_mesh_log_warning.lib(m_lay_ltrans.o)
    0x0004f596   0x0004f596   0x00000002   PAD
    0x0004f598   0x0004f598   0x00000046   Data   RO         2588    .conststring        bk3435_ble_mesh_log_warning.lib(m_lay_utrans.o)
    0x0004f5de   0x0004f5de   0x00000002   PAD
    0x0004f5e0   0x0004f5e0   0x00000020   Data   RO         3044    Region$$Table       anon$$obj.o
    0x0004f600   0x0004f600   0x0000001c   Data   RO         2897    locale$$data        c_5.l(lc_numeric_c.o)
    0x0004f61c   0x0004f61c   0x00000110   Data   RO         2919    locale$$data        c_5.l(lc_ctype_c.o)


    Execution Region RAM_DATA (Exec base: 0x00400c00, Load base: 0x0004f72c, Size: 0x000001bc, Max: 0xffffffff, ABSOLUTE, COMPRESSED[0x00000094])

    Exec Addr    Load Addr    Size         Type   Attr      Idx    E Section Name        Object

    0x00400c00   COMPRESSED   0x00000008   Data   RW           10    .data               arch_main_1.o
    0x00400c08   COMPRESSED   0x00000002   Data   RW          680    .data               icu.o
    0x00400c0a   COMPRESSED   0x00000002   PAD
    0x00400c0c   COMPRESSED   0x00000018   Data   RW          752    .data               uart.o
    0x00400c24   COMPRESSED   0x00000008   Data   RW          846    .data               flash.o
    0x00400c2c   COMPRESSED   0x00000002   Data   RW          918    .data               wdt.o
    0x00400c2e   COMPRESSED   0x00000002   PAD
    0x00400c30   COMPRESSED   0x0000002c   Data   RW          937    .data               gpio.o
    0x00400c5c   COMPRESSED   0x00000008   Data   RW         1174    .data               oads.o
    0x00400c64   COMPRESSED   0x00000001   Data   RW         1337    .data               app_task.o
    0x00400c65   COMPRESSED   0x00000001   Data   RW         1338    .data               app_task.o
    0x00400c66   COMPRESSED   0x0000000e   Data   RW         1375    .data               app_mesh.o
    0x00400c74   COMPRESSED   0x00000002   Data   RW         1510    .data               app_batt.o
    0x00400c76   COMPRESSED   0x00000002   Data   RW         1556    .data               app_fff0.o
    0x00400c78   COMPRESSED   0x00000001   Data   RW         1586    .data               app_oads.o
    0x00400c79   COMPRESSED   0x00000001   PAD
    0x00400c7a   COMPRESSED   0x0000000c   Data   RW         1654    .data               app_light_ali_server.o
    0x00400c86   COMPRESSED   0x00000001   Data   RW         1658    .data               app_light_ali_server.o
    0x00400c87   COMPRESSED   0x00000001   PAD
    0x00400c88   COMPRESSED   0x0000002a   Data   RW         1741    .data               led.o
    0x00400cb2   COMPRESSED   0x00000002   PAD
    0x00400cb4   COMPRESSED   0x00000008   Data   RW         1795    .data               m_api.o
    0x00400cbc   COMPRESSED   0x00000004   Data   RW         1865    .data               mesh_api.o
    0x00400cc0   COMPRESSED   0x00000004   Data   RW         1948    .data               mm_api.o
    0x00400cc4   COMPRESSED   0x00000004   Data   RW         1975    .data               m_fnd_blob_transfer.o
    0x00400cc8   COMPRESSED   0x00000008   Data   RW         2026    .data               m_fnd_fw_update.o
    0x00400cd0   COMPRESSED   0x00000004   Data   RW         2046    .data               m_fnd_scenes.o
    0x00400cd4   COMPRESSED   0x00000002   Data   RW         2072    .data               mm_vendors.o
    0x00400cd6   COMPRESSED   0x00000001   Data   RW         2334    .data               ais_task.o
    0x00400cd7   COMPRESSED   0x00000001   PAD
    0x00400cd8   COMPRESSED   0x00000047   Data   RW         2381    .data               gma.o
    0x00400d1f   COMPRESSED   0x00000001   PAD
    0x00400d20   COMPRESSED   0x00000026   Data   RW         2426    .data               bk3435_pn9_mode.lib(rf_pn9_test.o)
    0x00400d46   COMPRESSED   0x00000003   Data   RW         2431    .data               bk3435_ble_mesh_log_warning.lib(lld_adv_test.o)
    0x00400d49   COMPRESSED   0x00000003   PAD
    0x00400d4c   COMPRESSED   0x00000004   Data   RW         2435    .data               bk3435_ble_mesh_log_warning.lib(mal.o)
    0x00400d50   COMPRESSED   0x00000004   Data   RW         2444    .data               bk3435_ble_mesh_log_warning.lib(mesh_tb_buf.o)
    0x00400d54   COMPRESSED   0x00000004   Data   RW         2449    .data               bk3435_ble_mesh_log_warning.lib(mesh_tb_timer.o)
    0x00400d58   COMPRESSED   0x00000004   Data   RW         2453    .data               bk3435_ble_mesh_log_warning.lib(m_bcn.o)
    0x00400d5c   COMPRESSED   0x00000004   Data   RW         2460    .data               bk3435_ble_mesh_log_warning.lib(m_bearer.o)
    0x00400d60   COMPRESSED   0x00000004   Data   RW         2466    .data               bk3435_ble_mesh_log_warning.lib(m_fnd_hlths.o)
    0x00400d64   COMPRESSED   0x00000004   Data   RW         2474    .data               bk3435_ble_mesh_log_warning.lib(m_lay_access.o)
    0x00400d68   COMPRESSED   0x00000004   Data   RW         2480    .data               bk3435_ble_mesh_log_warning.lib(m_lay_proxy.o)
    0x00400d6c   COMPRESSED   0x00000008   Data   RW         2485    .data               bk3435_ble_mesh_log_warning.lib(m_prov.o)
    0x00400d74   COMPRESSED   0x00000004   Data   RW         2496    .data               bk3435_ble_mesh_log_warning.lib(m_tb_key.o)
    0x00400d78   COMPRESSED   0x00000004   Data   RW         2500    .data               bk3435_ble_mesh_log_warning.lib(m_tb_mio.o)
    0x00400d7c   COMPRESSED   0x00000008   Data   RW         2505    .data               bk3435_ble_mesh_log_warning.lib(m_tb_store_nvds.o)
    0x00400d84   COMPRESSED   0x00000004   Data   RW         2510    .data               bk3435_ble_mesh_log_warning.lib(m_tb_state.o)
    0x00400d88   COMPRESSED   0x00000004   Data   RW         2516    .data               bk3435_ble_mesh_log_warning.lib(mm_tb_bind.o)
    0x00400d8c   COMPRESSED   0x00000004   Data   RW         2519    .data               bk3435_ble_mesh_log_warning.lib(mm_tb_replay.o)
    0x00400d90   COMPRESSED   0x00000004   Data   RW         2524    .data               bk3435_ble_mesh_log_warning.lib(mm_route.o)
    0x00400d94   COMPRESSED   0x00000004   Data   RW         2528    .data               bk3435_ble_mesh_log_warning.lib(mm_tb_state.o)
    0x00400d98   COMPRESSED   0x00000004   Data   RW         2532    .data               bk3435_ble_mesh_log_warning.lib(mal_adv.o)
    0x00400d9c   COMPRESSED   0x00000004   Data   RW         2549    .data               bk3435_ble_mesh_log_warning.lib(mesh_tb_sec.o)
    0x00400da0   COMPRESSED   0x00000004   Data   RW         2563    .data               bk3435_ble_mesh_log_warning.lib(m_fnd_confs.o)
    0x00400da4   COMPRESSED   0x00000004   Data   RW         2569    .data               bk3435_ble_mesh_log_warning.lib(m_lay_hb.o)
    0x00400da8   COMPRESSED   0x00000004   Data   RW         2576    .data               bk3435_ble_mesh_log_warning.lib(m_lay_ltrans.o)
    0x00400dac   COMPRESSED   0x00000008   Data   RW         2582    .data               bk3435_ble_mesh_log_warning.lib(m_lay_net.o)
    0x00400db4   COMPRESSED   0x00000004   Data   RW         2589    .data               bk3435_ble_mesh_log_warning.lib(m_lay_utrans.o)
    0x00400db8   COMPRESSED   0x00000001   Data   RW         2593    .data               bk3435_ble_mesh_log_warning.lib(m_prov_adv_trans.o)


    Execution Region RAM_BSS (Exec base: 0x00400dbc, Load base: 0x0004f7c0, Size: 0x000093dc, Max: 0xffffffff, ABSOLUTE)

    Exec Addr    Load Addr    Size         Type   Attr      Idx    E Section Name        Object

    0x00400dbc        -       0x00000010   Zero   RW            6    .bss                arch_main_1.o
    0x00400dcc        -       0x00000081   Zero   RW          422    .bss                mesh_log.o
    0x00400e4d   0x0004f7c0   0x00000003   PAD
    0x00400e50        -       0x000070b0   Zero   RW          602    .bss                rwip.o
    0x00407f00        -       0x0000032c   Zero   RW          751    .bss                uart.o
    0x0040822c        -       0x0000000c   Zero   RW          845    .bss                flash.o
    0x00408238        -       0x00000040   Zero   RW          896    .bss                rf_xvr.o
    0x00408278        -       0x00000028   Zero   RW          936    .bss                gpio.o
    0x004082a0        -       0x00000014   Zero   RW          966    .bss                pwm.o
    0x004082b4        -       0x000000c0   Zero   RW         1172    .bss                oads.o
    0x00408374        -       0x000000f0   Zero   RW         1242    .bss                prf.o
    0x00408464        -       0x00000028   Zero   RW         1280    .bss                app.o
    0x0040848c        -       0x0000001c   Zero   RW         1370    .bss                app_mesh.o
    0x004084a8        -       0x00000410   Zero   RW         1608    .bss                oad_common.o
    0x004088b8        -       0x000000a2   Zero   RW         1649    .bss                app_light_ali_server.o
    0x0040895a   0x0004f7c0   0x00000002   PAD
    0x0040895c        -       0x00000074   Zero   RW         1737    .bss                led.o
    0x004089d0        -       0x00000030   Zero   RW         1908    .bss                mesh_param_int.o
    0x00408a00        -       0x0000101b   Zero   RW         1973    .bss                m_fnd_blob_transfer.o
    0x00409a1b        -       0x0000001b   Zero   RW         2024    .bss                m_fnd_fw_update.o
    0x00409a36   0x0004f7c0   0x00000002   PAD
    0x00409a38        -       0x00000416   Zero   RW         2379    .bss                gma.o
    0x00409e4e   0x0004f7c0   0x00000002   PAD
    0x00409e50        -       0x000001d0   Zero   RW         2429    .bss                bk3435_ble_mesh_log_warning.lib(lld_adv_test.o)
    0x0040a020        -       0x00000018   Zero   RW         2596    .bss                bk3435_ble_mesh_log_warning.lib(aes.o)
    0x0040a038        -       0x00000060   Zero   RW         2915    .bss                c_5.l(libspace.o)
    0x0040a098        -       0x00000100   Zero   RW          414    Myheap              boot_handlers.o


    Execution Region RAM_STACK_UNUSED (Exec base: 0x0040a4fc, Load base: 0x0004f7c0, Size: 0x00000100, Max: 0x00000100, ABSOLUTE)

    Exec Addr    Load Addr    Size         Type   Attr      Idx    E Section Name        Object

    0x0040a4fc        -       0x00000100   Zero   RW            1    RAM_STACK_UNUSED.bss  anon$$obj.o


    Execution Region RAM_STACK_FIQ (Exec base: 0x0040a5fc, Load base: 0x0004f7c0, Size: 0x00000500, Max: 0x00000500, ABSOLUTE)

    Exec Addr    Load Addr    Size         Type   Attr      Idx    E Section Name        Object

    0x0040a5fc        -       0x00000500   Zero   RW            2    RAM_STACK_FIQ.bss   anon$$obj.o


    Execution Region RAM_STACK_IRQ (Exec base: 0x0040aafc, Load base: 0x0004f7c0, Size: 0x00000500, Max: 0x00000500, ABSOLUTE)

    Exec Addr    Load Addr    Size         Type   Attr      Idx    E Section Name        Object

    0x0040aafc        -       0x00000500   Zero   RW            3    RAM_STACK_IRQ.bss   anon$$obj.o


    Execution Region RAM_STACK_SVC (Exec base: 0x0040affc, Load base: 0x0004f7c0, Size: 0x00001000, Max: 0x00001000, ABSOLUTE)

    Exec Addr    Load Addr    Size         Type   Attr      Idx    E Section Name        Object

    0x0040affc        -       0x00001000   Zero   RW            4    RAM_STACK_SVC.bss   anon$$obj.o


==============================================================================

Image component sizes


      Code (inc. data)   RO Data    RW Data    ZI Data      Debug   Object Name

      3224         90       8488          0          0       8730   aes.o
       440         48        120          0          0       5979   ais.o
       556         50         48          1          0       5413   ais_task.o
       412        150         83          0          0       2277   ali_config.o
       368         30        106          0         40       6452   app.o
       120         10         24          0          0       2448   app_ais.o
       220         56         40          2          0       3491   app_batt.o
       300        126         16          0          0       2116   app_dis.o
       396        144         74          2          0       5475   app_fff0.o
      2260        966        120         13        162      12624   app_light_ali_server.o
      2748       1298        436         14         28      41450   app_mesh.o
      1556       1020         66          0          0       5814   app_mm_msg.o
       496        182        224          1          0       4595   app_oads.o
      2180       1032        469          2          0       9086   app_task.o
      1872        928        309          8         16     144018   arch_main_1.o
      1092         86         56          0          0      11870   bass.o
       676         14         56          0          0      14579   bass_task.o
       512         80          0          0        256        380   boot_handlers.o
        92         32          0          0          0        328   boot_vectors.o
       384         12        168          0          0       7434   diss.o
       464          8         32          0          0      10396   diss_task.o
        24          4          0          0          0        535   emi.o
       528         50         64          0          0       6665   fff0s.o
       552          8         48          0          0       6164   fff0s_task.o
      1660        176          0          8         12       9124   flash.o
      7232       1606         78         71       1046      20344   gma.o
       772         20          0         44         40       4184   gpio.o
       424         36          0          2          0       3432   icu.o
       244         18          0          0          0       3752   intc.o
      3760       1342        772         42        116      14544   led.o
      1488        328        139          8          0      11685   m_api.o
      1572        196         72          0          0      10806   m_api_msg.o
      1464         56         16          4       4123      18092   m_fnd_blob_transfer.o
       816         58         16          8         27       7138   m_fnd_fw_update.o
       956         22         16          4          0      11165   m_fnd_scenes.o
       204         14          0          4          0       3446   mesh_api.o
       320         18          4          0          0       3783   mesh_api_msg.o
       292         92          0          0          0       4782   mesh_general_api.o
        92         10         17          0        129       1563   mesh_log.o
        64         10          0          0         48       1760   mesh_param_int.o
       620         68          0          4          0       6292   mm_api.o
       632         48         55          0          0       6529   mm_api_msg.o
       164         26         97          0          0       4400   mm_gens.o
      1108        232         61          0          0       6234   mm_gens_oo.o
      1592        290        358          0          0       4843   mm_lights.o
      3356        302        125          0          0      16559   mm_lights_ctl.o
      4412        472        336          0          0      23666   mm_lights_hsl.o
      2608        400        492          0          0      11669   mm_lights_ln.o
      1672        224        275          2          0      12762   mm_vendors.o
      1140        706         20          0       1040       5844   oad_common.o
      2248        720        126          8        192      15583   oads.o
       796        150        106          0          0      12179   oads_task.o
       808        178          0          0        240       5760   prf.o
        96          0          0          0          0       2305   prf_utils.o
       436         18          0          0         20       3378   pwm.o
      1192        260          0          0         64     110134   rf_xvr.o
       816         26          0          0          0     117738   rwble.o
        56          0          0          0          0        611   rwble_hl.o
      1088         96          0          0      28848     113506   rwip.o
       688         38        256          0          0       3022   sha256.o
        44          4          0          0          0       3469   timer.o
      1380        188          0         24        812      52428   uart.o
       140         10          0          2          0       1239   wdt.o

    ----------------------------------------------------------------------
     70028      14926      14548        288      44180     988069   Object Totals
        88         44         32          0       6912          0   (incl. Generated)
        16          0         32         10          9          0   (incl. Padding)

    ----------------------------------------------------------------------

      Code (inc. data)   RO Data    RW Data    ZI Data      Debug   Library Member Name

       496         96         10          0         24        308   aes.o
       888         58          8          0          0        216   aes_ccm.o
       424         46         25          0          0        140   aes_cmac.o
       112          6          0          0          0        108   aes_k1.o
       336         20         16          0          0        116   aes_k2.o
       156         46         28          0          0        100   aes_k3.o
       164         44         27          0          0        104   aes_k4.o
        88         48          7          0          0         72   aes_s1.o
      3644        696          0          3        464        436   lld_adv_test.o
      2718        370         99          4          0        788   m_bcn.o
      1584        376         90          4          0        512   m_bearer.o
      1056        104         57          0          0        368   m_bearer_adv.o
       980        286        216          0          0        376   m_bearer_gatt.o
        80          0          0          0          0        104   m_fnd.o
      7136       1432       1288          4          0       1524   m_fnd_confs.o
       924        120        123          4          0        480   m_fnd_hlths.o
       368         54          0          0          0        104   m_lay.o
      2632        828        545          4          0        532   m_lay_access.o
       504         56         26          4          0        380   m_lay_hb.o
      3452        530        178          4          0        624   m_lay_ltrans.o
      3900        544        287          8          0        924   m_lay_net.o
      3048        412        309          4          0        824   m_lay_proxy.o
      2220        586        258          4          0        540   m_lay_utrans.o
      6700       2198       1121          8          0       1440   m_prov.o
      2436        272        380          1          0        356   m_prov_adv_trans.o
      1060        360        209          0          0        460   m_prov_bearer.o
       144          0          0          0          0        104   m_tb.o
      6236       1040        251          4          0       1672   m_tb_key.o
      2660        160         74          4          0       1224   m_tb_mio.o
      1604        214        299          4          0       1024   m_tb_state.o
      3108        264        185          8          0        896   m_tb_store_nvds.o
       368         12         16          4          0        396   mal.o
       636         58         12          4          0        484   mal_adv.o
      2548         86        112          0          0        592   mal_con.o
       168          8          0          0          0        184   mal_djob.o
       444         14          0          0          0        476   mal_sec.o
       380         44        146          0          0        276   mal_task.o
       356         16          0          0          0        332   mal_timer.o
       160          6          0          0          0        128   mesh.o
       112          0          0          0          0        104   mesh_tb.o
      1648        358        272          4          0        624   mesh_tb_buf.o
       844        140         20          4          0        456   mesh_tb_sec.o
       440         10          0          4          0        388   mesh_tb_timer.o
       528         96         99          4          0        392   mm_route.o
       276         24          0          0          0        188   mm_tb.o
      2020        226        143          4          0        664   mm_tb_bind.o
       388          8          0          4          0        276   mm_tb_replay.o
       424         74         40          4          0        348   mm_tb_state.o
       764        190          0         38          0        344   rf_pn9_test.o
        44          4          0          0          0         84   __2sprintf.o
        92          0          0          0          0          0   __dczerorl2.o
         8          0          0          0          0         68   __main.o
       392          6         17          0          0         76   __printf_flags_ss_wp.o
        14          0          0          0          0         60   __printf_wp.o
         0          0          0          0          0          0   __rtentry.o
        44          4          0          0          0          0   __rtentry2.o
         8          0          0          0          0          0   __rtentry4.o
        60          8          0          0          0          0   __scatter.o
        44          0          0          0          0          0   __scatter_zi.o
         8          0          0          0          0          0   _printf_a.o
         8          0          0          0          0          0   _printf_c.o
        54          0          0          0          0        100   _printf_char.o
        48          6          0          0          0         88   _printf_char_common.o
        46          0          0          0          0         60   _printf_charcount.o
         8          0          0          0          0          0   _printf_d.o
       116         18          0          0          0         76   _printf_dec.o
         8          0          0          0          0          0   _printf_e.o
         8          0          0          0          0          0   _printf_f.o
      1044         12          0          0          0        176   _printf_fp_dec.o
       736         10         38          0          0         84   _printf_fp_hex.o
       136         16          0          0          0         76   _printf_fp_infnan.o
         8          0          0          0          0          0   _printf_g.o
       160          4         40          0          0        148   _printf_hex_int_ll_ptr.o
         8          0          0          0          0          0   _printf_i.o
       176          0          0          0          0         84   _printf_intcommon.o
        12          0          0          0          0          0   _printf_l.o
         8          0          0          0          0          0   _printf_lc.o
        12          0          0          0          0          0   _printf_ll.o
         8          0          0          0          0          0   _printf_lld.o
         8          0          0          0          0          0   _printf_lli.o
         8          0          0          0          0          0   _printf_llo.o
         8          0          0          0          0          0   _printf_llu.o
         8          0          0          0          0          0   _printf_llx.o
       120         18          0          0          0         76   _printf_longlong_dec.o
         8          0          0          0          0          0   _printf_ls.o
         8          0          0          0          0          0   _printf_n.o
         8          0          0          0          0          0   _printf_o.o
       120         10          0          0          0        112   _printf_oct_int_ll.o
         8          0          0          0          0          0   _printf_p.o
        78          0          0          0          0        100   _printf_pad.o
         0          0          0          0          0          0   _printf_percent.o
         8          0          0          0          0          0   _printf_percent_end.o
         8          0          0          0          0          0   _printf_s.o
        82          0          0          0          0         72   _printf_str.o
        44          0          0          0          0         76   _printf_truncate.o
         8          0          0          0          0          0   _printf_u.o
        54          0          0          0          0        100   _printf_wchar.o
       188          6          8          0          0         80   _printf_wctomb.o
         8          0          0          0          0          0   _printf_x.o
        16          0          0          0          0         60   _snputc.o
        10          0          0          0          0         60   _sputc.o
        64          0          0          0          0         72   _wcrtomb.o
       216          6        148          0          0         80   bigflt0.o
      2044        128          0          0          0        672   btod.o
        16          0          0          0          0         68   exit.o
         0          0          0          0          0          0   indicate_semi.o
        72          8        272          0          0         76   lc_ctype_c.o
        72          8         28          0          0         76   lc_numeric_c.o
         2          0          0          0          0          0   libinit.o
        30          0          0          0          0          0   libinit2.o
         2          0          0          0          0          0   libshutdown.o
         2          0          0          0          0          0   libshutdown2.o
        12          4          0          0         96         68   libspace.o
        24          0          0          0          0         76   llmul.o
       152          0          0          0          0         80   lludiv10.o
        20          4          0          0          0         76   rt_ctype_table.o
        12          4          0          0          0         68   rt_locale_intlibspace.o
         4          0          0          0          0          0   rtexit.o
        12          0          0          0          0          0   rtexit2.o
        44          0          0          0          0         68   rtudiv10.o
       244          4          0          0          0         80   strcmp.o
        12          4          0          0          0         60   sys_exit.o
        96          0          0          0          0         80   sys_stackheap_outer.o
        32          0          0          0          0         68   uread4.o
         4          0          0          0          0         68   use_no_semi.o
        32          0          0          0          0         68   uwrite4.o
        56          6          0          0          0         72   vsnprintf.o
       108          4          0          0          0         92   d2f.o
       876         16          0          0          0        352   daddsub_clz.o
        16          4          0          0          0         68   dcheck1.o
        28          0          0          0          0         68   dcmpi.o
       720        140          0          0          0        208   ddiv.o
       112          4          0          0          0         92   dfixu.o
        96          0          0          0          0        136   dflt_clz.o
       148          4          0          0          0         92   dleqf.o
       376         16          0          0          0        104   dmul.o
       184          0          0          0          0         92   dnaninf.o
        16          0          0          0          0         68   dretinf.o
       140          0          0          0          0         80   drleqf.o
       192          4          0          0          0         80   drnd.o
       100          4          0          0          0         84   f2d.o
       472          8          0          0          0        236   faddsub_clz.o
        12          4          0          0          0         68   fcheck1.o
       400         76          0          0          0         96   fdiv.o
        40          0          0          0          0         68   fflt_clz.o
       256          4          0          0          0         84   fmul.o
       160          0          0          0          0         84   fnaninf.o
        16          0          0          0          0         68   fretinf.o
         8          0          0          0          0         68   istatus.o
         4          0          0          0          0         68   printf1.o
         4          0          0          0          0         68   printf2.o
       116          0          0          0          0         68   retnan.o
       104          0          0          0          0         68   scalbn.o
        92          0          0          0          0         68   scalbnf.o
        60          0          0          0          0         68   trapv.o
         0          0          0          0          0          0   usenofp.o
       300         20          0          0          0         84   ceil.o
        48          4          0          0          0         68   fpclassify.o
       220          4          0          0          0         88   round.o

    ----------------------------------------------------------------------
     86200      13250       7576        156        584      30436   Library Totals
        12          0         49          6          0          0   (incl. Padding)

    ----------------------------------------------------------------------

      Code (inc. data)   RO Data    RW Data    ZI Data      Debug   Library Name

     72598      12446       6976        112        488      23164   bk3435_ble_mesh_log_warning.lib
       764        190          0         38          0        344   bk3435_pn9_mode.lib
      7402        298        551          0         96       3892   c_5.l
      4856        288          0          0          0       2796   fz_5s.l
       568         28          0          0          0        240   m_5s.l

    ----------------------------------------------------------------------
     86200      13250       7576        156        584      30436   Library Totals

    ----------------------------------------------------------------------

==============================================================================


      Code (inc. data)   RO Data    RW Data    ZI Data      Debug   

    156228      28176      22124        444      44764    1003821   Grand Totals
    156228      28176      22124        148      44764    1003821   ELF Image Totals (compressed)
    156228      28176      22124        148          0          0   ROM Totals

==============================================================================

    Total RO  Size (Code + RO Data)               178352 ( 174.17kB)
    Total RW  Size (RW Data + ZI Data)             45208 (  44.15kB)
    Total ROM Size (Code + RO Data + RW Data)     178500 ( 174.32kB)

==============================================================================

